ARM GAS  C:\Users\30514\AppData\Local\Temp\ccabBB2v.s 			page 1


   1              		.cpu cortex-m4
   2              		.arch armv7e-m
   3              		.fpu fpv4-sp-d16
   4              		.eabi_attribute 27, 1
   5              		.eabi_attribute 28, 1
   6              		.eabi_attribute 20, 1
   7              		.eabi_attribute 21, 1
   8              		.eabi_attribute 23, 3
   9              		.eabi_attribute 24, 1
  10              		.eabi_attribute 25, 1
  11              		.eabi_attribute 26, 1
  12              		.eabi_attribute 30, 6
  13              		.eabi_attribute 34, 1
  14              		.eabi_attribute 18, 4
  15              		.file	"arm_control.c"
  16              		.text
  17              	.Ltext0:
  18              		.cfi_sections	.debug_frame
  19              		.file 1 "Module/arm_control/arm_control.c"
  20              		.section	.bss.target_angles,"aw",%nobits
  21              		.align	2
  24              	target_angles:
  25 0000 00000000 		.space	12
  25      00000000 
  25      00000000 
  26              		.section	.bss.current_angles,"aw",%nobits
  27              		.align	2
  30              	current_angles:
  31 0000 00000000 		.space	12
  31      00000000 
  31      00000000 
  32              		.section	.rodata.MAX_ANGLE_STEP,"a"
  33              		.align	2
  36              	MAX_ANGLE_STEP:
  37 0000 C2B8B23D 		.word	1035122882
  38              		.section	.text.ArmControl_Init,"ax",%progbits
  39              		.align	1
  40              		.global	ArmControl_Init
  41              		.syntax unified
  42              		.thumb
  43              		.thumb_func
  45              	ArmControl_Init:
  46              	.LFB134:
   1:Module/arm_control/arm_control.c **** #include "arm_control.h"
   2:Module/arm_control/arm_control.c **** #include "main.h"
   3:Module/arm_control/arm_control.c **** #include "math.h"
   4:Module/arm_control/arm_control.c **** #include "remote_control.h" // 包含remote_control_active声明
   5:Module/arm_control/arm_control.c **** #include "dm_ctrl.h"
   6:Module/arm_control/arm_control.c **** #include "coordinate_mapping.h"
   7:Module/arm_control/arm_control.c **** 
   8:Module/arm_control/arm_control.c **** // 定义π常量
   9:Module/arm_control/arm_control.c **** #ifndef M_PI
  10:Module/arm_control/arm_control.c **** #define M_PI 3.14159265358979323846f
  11:Module/arm_control/arm_control.c **** #endif
  12:Module/arm_control/arm_control.c **** 
  13:Module/arm_control/arm_control.c **** // 角度转换宏
  14:Module/arm_control/arm_control.c **** #define DEG_TO_RAD(x) ((x) * M_PI / 180.0f)
ARM GAS  C:\Users\30514\AppData\Local\Temp\ccabBB2v.s 			page 2


  15:Module/arm_control/arm_control.c **** 
  16:Module/arm_control/arm_control.c **** extern motor_t motor[num];
  17:Module/arm_control/arm_control.c **** 
  18:Module/arm_control/arm_control.c **** // 当前目标角度
  19:Module/arm_control/arm_control.c **** static JointAngles target_angles;
  20:Module/arm_control/arm_control.c **** // 当前执行角度
  21:Module/arm_control/arm_control.c **** static JointAngles current_angles;
  22:Module/arm_control/arm_control.c **** 
  23:Module/arm_control/arm_control.c **** // 最大角度变化率 (约5度/控制周期)
  24:Module/arm_control/arm_control.c **** static const float MAX_ANGLE_STEP = DEG_TO_RAD(5.0f);
  25:Module/arm_control/arm_control.c **** 
  26:Module/arm_control/arm_control.c **** // 初始化函数
  27:Module/arm_control/arm_control.c **** void ArmControl_Init(void)
  28:Module/arm_control/arm_control.c **** {
  47              		.loc 1 28 1
  48              		.cfi_startproc
  49              		@ args = 0, pretend = 0, frame = 0
  50              		@ frame_needed = 1, uses_anonymous_args = 0
  51 0000 80B5     		push	{r7, lr}
  52              	.LCFI0:
  53              		.cfi_def_cfa_offset 8
  54              		.cfi_offset 7, -8
  55              		.cfi_offset 14, -4
  56 0002 00AF     		add	r7, sp, #0
  57              	.LCFI1:
  58              		.cfi_def_cfa_register 7
  29:Module/arm_control/arm_control.c ****     // 设置工作空间范围（使用默认值）
  30:Module/arm_control/arm_control.c ****     Set_Joint_Ranges(
  59              		.loc 1 30 5
  60 0004 DFED151A 		vldr.32	s3, .L2
  61 0008 9FED151A 		vldr.32	s2, .L2+4
  62 000c DFED150A 		vldr.32	s1, .L2+8
  63 0010 9FED150A 		vldr.32	s0, .L2+12
  64 0014 FFF7FEFF 		bl	Set_Joint_Ranges
  31:Module/arm_control/arm_control.c ****         (30.0f / 180.0f) * M_PI,   // 关节1最小角度 -180°
  32:Module/arm_control/arm_control.c ****         0,                         // 关节1最大角度 180°
  33:Module/arm_control/arm_control.c ****         -(110.0f / 180.0f) * M_PI, // 关节2最小角度 -135°
  34:Module/arm_control/arm_control.c ****         -(60.0f / 180.0f) * M_PI   // 关节2最大角度 -45°
  35:Module/arm_control/arm_control.c ****     );
  36:Module/arm_control/arm_control.c **** 
  37:Module/arm_control/arm_control.c ****     // 设置摇杆通道（使用默认配置）
  38:Module/arm_control/arm_control.c ****     Set_Stick_Channels(1, 2);
  65              		.loc 1 38 5
  66 0018 0221     		movs	r1, #2
  67 001a 0120     		movs	r0, #1
  68 001c FFF7FEFF 		bl	Set_Stick_Channels
  39:Module/arm_control/arm_control.c **** 
  40:Module/arm_control/arm_control.c ****     motor[Motor1].ctrl.mode = 0; // MIT模式
  69              		.loc 1 40 29
  70 0020 124B     		ldr	r3, .L2+16
  71 0022 0022     		movs	r2, #0
  72 0024 83F83C20 		strb	r2, [r3, #60]
  41:Module/arm_control/arm_control.c ****     motor[Motor2].ctrl.mode = 0; // MIT模式
  73              		.loc 1 41 29
  74 0028 104B     		ldr	r3, .L2+16
  75 002a 0022     		movs	r2, #0
  76 002c 83F8A820 		strb	r2, [r3, #168]
ARM GAS  C:\Users\30514\AppData\Local\Temp\ccabBB2v.s 			page 3


  42:Module/arm_control/arm_control.c **** 
  43:Module/arm_control/arm_control.c ****     // 初始化电机
  44:Module/arm_control/arm_control.c ****     dm4310_motor_init();
  77              		.loc 1 44 5
  78 0030 FFF7FEFF 		bl	dm4310_motor_init
  45:Module/arm_control/arm_control.c **** 
  46:Module/arm_control/arm_control.c ****     // 启用电机控制
  47:Module/arm_control/arm_control.c ****     ctrl_enable(ALL_MOTORS);
  79              		.loc 1 47 5
  80 0034 0320     		movs	r0, #3
  81 0036 FFF7FEFF 		bl	ctrl_enable
  48:Module/arm_control/arm_control.c **** 
  49:Module/arm_control/arm_control.c ****     // 初始化角度为安全位置
  50:Module/arm_control/arm_control.c ****     target_angles.theta1 = (15 / 180) * M_PI;
  82              		.loc 1 50 26
  83 003a 0D4B     		ldr	r3, .L2+20
  84 003c 4FF00002 		mov	r2, #0
  85 0040 1A60     		str	r2, [r3]	@ float
  51:Module/arm_control/arm_control.c ****     target_angles.theta2 = -M_PI / 2; // -90度
  86              		.loc 1 51 26
  87 0042 0B4B     		ldr	r3, .L2+20
  88 0044 0B4A     		ldr	r2, .L2+24
  89 0046 5A60     		str	r2, [r3, #4]	@ float
  52:Module/arm_control/arm_control.c ****     target_angles.valid = true;
  90              		.loc 1 52 25
  91 0048 094B     		ldr	r3, .L2+20
  92 004a 0122     		movs	r2, #1
  93 004c 1A72     		strb	r2, [r3, #8]
  53:Module/arm_control/arm_control.c ****     current_angles = target_angles; // 初始当前角度等于目标角度
  94              		.loc 1 53 20
  95 004e 0A4B     		ldr	r3, .L2+28
  96 0050 074A     		ldr	r2, .L2+20
  97 0052 07CA     		ldm	r2, {r0, r1, r2}
  98 0054 83E80700 		stm	r3, {r0, r1, r2}
  54:Module/arm_control/arm_control.c **** }
  99              		.loc 1 54 1
 100 0058 00BF     		nop
 101 005a 80BD     		pop	{r7, pc}
 102              	.L3:
 103              		.align	2
 104              	.L2:
 105 005c 920A86BF 		.word	-1081734510
 106 0060 0BBEF5BF 		.word	-1074414069
 107 0064 00000000 		.word	0
 108 0068 920A063F 		.word	1057360530
 109 006c 00000000 		.word	motor
 110 0070 00000000 		.word	target_angles
 111 0074 DB0FC9BF 		.word	-1077342245
 112 0078 00000000 		.word	current_angles
 113              		.cfi_endproc
 114              	.LFE134:
 116              		.section	.text.Apply_Smoothing,"ax",%progbits
 117              		.align	1
 118              		.syntax unified
 119              		.thumb
 120              		.thumb_func
 122              	Apply_Smoothing:
ARM GAS  C:\Users\30514\AppData\Local\Temp\ccabBB2v.s 			page 4


 123              	.LFB135:
  55:Module/arm_control/arm_control.c **** 
  56:Module/arm_control/arm_control.c **** // 应用平滑处理
  57:Module/arm_control/arm_control.c **** static void Apply_Smoothing(void)
  58:Module/arm_control/arm_control.c **** {
 124              		.loc 1 58 1
 125              		.cfi_startproc
 126              		@ args = 0, pretend = 0, frame = 8
 127              		@ frame_needed = 1, uses_anonymous_args = 0
 128 0000 80B5     		push	{r7, lr}
 129              	.LCFI2:
 130              		.cfi_def_cfa_offset 8
 131              		.cfi_offset 7, -8
 132              		.cfi_offset 14, -4
 133 0002 2DED028B 		vpush.64	{d8}
 134              	.LCFI3:
 135              		.cfi_def_cfa_offset 16
 136              		.cfi_offset 80, -16
 137              		.cfi_offset 81, -12
 138 0006 82B0     		sub	sp, sp, #8
 139              	.LCFI4:
 140              		.cfi_def_cfa_offset 24
 141 0008 00AF     		add	r7, sp, #0
 142              	.LCFI5:
 143              		.cfi_def_cfa_register 7
  59:Module/arm_control/arm_control.c ****     // 关节1平滑
  60:Module/arm_control/arm_control.c ****     float delta1 = target_angles.theta1 - current_angles.theta1;
 144              		.loc 1 60 33
 145 000a 2F4B     		ldr	r3, .L16
 146 000c 93ED007A 		vldr.32	s14, [r3]
 147              		.loc 1 60 57
 148 0010 2E4B     		ldr	r3, .L16+4
 149 0012 D3ED007A 		vldr.32	s15, [r3]
 150              		.loc 1 60 11
 151 0016 77EE677A 		vsub.f32	s15, s14, s15
 152 001a C7ED017A 		vstr.32	s15, [r7, #4]
  61:Module/arm_control/arm_control.c ****     if (fabsf(delta1) > MAX_ANGLE_STEP)
 153              		.loc 1 61 9
 154 001e D7ED017A 		vldr.32	s15, [r7, #4]
 155 0022 F0EEE77A 		vabs.f32	s15, s15
 156              		.loc 1 61 23
 157 0026 9FED2A7A 		vldr.32	s14, .L16+8
 158              		.loc 1 61 8
 159 002a F4EEC77A 		vcmpe.f32	s15, s14
 160 002e F1EE10FA 		vmrs	APSR_nzcv, FPSCR
 161 0032 12DD     		ble	.L13
  62:Module/arm_control/arm_control.c ****     {
  63:Module/arm_control/arm_control.c ****         current_angles.theta1 += copysignf(MAX_ANGLE_STEP, delta1);
 162              		.loc 1 63 23
 163 0034 254B     		ldr	r3, .L16+4
 164 0036 93ED008A 		vldr.32	s16, [r3]
 165              		.loc 1 63 34
 166 003a DFED257A 		vldr.32	s15, .L16+8
 167 003e D7ED010A 		vldr.32	s1, [r7, #4]
 168 0042 B0EE670A 		vmov.f32	s0, s15
 169 0046 FFF7FEFF 		bl	copysignf
 170 004a F0EE407A 		vmov.f32	s15, s0
ARM GAS  C:\Users\30514\AppData\Local\Temp\ccabBB2v.s 			page 5


 171              		.loc 1 63 31 discriminator 1
 172 004e 78EE277A 		vadd.f32	s15, s16, s15
 173 0052 1E4B     		ldr	r3, .L16+4
 174 0054 C3ED007A 		vstr.32	s15, [r3]
 175 0058 03E0     		b	.L7
 176              	.L13:
  64:Module/arm_control/arm_control.c ****     }
  65:Module/arm_control/arm_control.c ****     else
  66:Module/arm_control/arm_control.c ****     {
  67:Module/arm_control/arm_control.c ****         current_angles.theta1 = target_angles.theta1;
 177              		.loc 1 67 46
 178 005a 1B4B     		ldr	r3, .L16
 179 005c 1B68     		ldr	r3, [r3]	@ float
 180              		.loc 1 67 31
 181 005e 1B4A     		ldr	r2, .L16+4
 182 0060 1360     		str	r3, [r2]	@ float
 183              	.L7:
  68:Module/arm_control/arm_control.c ****     }
  69:Module/arm_control/arm_control.c **** 
  70:Module/arm_control/arm_control.c ****     // 关节2平滑
  71:Module/arm_control/arm_control.c ****     float delta2 = target_angles.theta2 - current_angles.theta2;
 184              		.loc 1 71 33
 185 0062 194B     		ldr	r3, .L16
 186 0064 93ED017A 		vldr.32	s14, [r3, #4]
 187              		.loc 1 71 57
 188 0068 184B     		ldr	r3, .L16+4
 189 006a D3ED017A 		vldr.32	s15, [r3, #4]
 190              		.loc 1 71 11
 191 006e 77EE677A 		vsub.f32	s15, s14, s15
 192 0072 C7ED007A 		vstr.32	s15, [r7]
  72:Module/arm_control/arm_control.c ****     if (fabsf(delta2) > MAX_ANGLE_STEP)
 193              		.loc 1 72 9
 194 0076 D7ED007A 		vldr.32	s15, [r7]
 195 007a F0EEE77A 		vabs.f32	s15, s15
 196              		.loc 1 72 23
 197 007e 9FED147A 		vldr.32	s14, .L16+8
 198              		.loc 1 72 8
 199 0082 F4EEC77A 		vcmpe.f32	s15, s14
 200 0086 F1EE10FA 		vmrs	APSR_nzcv, FPSCR
 201 008a 12DD     		ble	.L14
  73:Module/arm_control/arm_control.c ****     {
  74:Module/arm_control/arm_control.c ****         current_angles.theta2 += copysignf(MAX_ANGLE_STEP, delta2);
 202              		.loc 1 74 23
 203 008c 0F4B     		ldr	r3, .L16+4
 204 008e 93ED018A 		vldr.32	s16, [r3, #4]
 205              		.loc 1 74 34
 206 0092 DFED0F7A 		vldr.32	s15, .L16+8
 207 0096 D7ED000A 		vldr.32	s1, [r7]
 208 009a B0EE670A 		vmov.f32	s0, s15
 209 009e FFF7FEFF 		bl	copysignf
 210 00a2 F0EE407A 		vmov.f32	s15, s0
 211              		.loc 1 74 31 discriminator 1
 212 00a6 78EE277A 		vadd.f32	s15, s16, s15
 213 00aa 084B     		ldr	r3, .L16+4
 214 00ac C3ED017A 		vstr.32	s15, [r3, #4]
  75:Module/arm_control/arm_control.c ****     }
  76:Module/arm_control/arm_control.c ****     else
ARM GAS  C:\Users\30514\AppData\Local\Temp\ccabBB2v.s 			page 6


  77:Module/arm_control/arm_control.c ****     {
  78:Module/arm_control/arm_control.c ****         current_angles.theta2 = target_angles.theta2;
  79:Module/arm_control/arm_control.c ****     }
  80:Module/arm_control/arm_control.c **** }
 215              		.loc 1 80 1
 216 00b0 03E0     		b	.L15
 217              	.L14:
  78:Module/arm_control/arm_control.c ****     }
 218              		.loc 1 78 46
 219 00b2 054B     		ldr	r3, .L16
 220 00b4 5B68     		ldr	r3, [r3, #4]	@ float
  78:Module/arm_control/arm_control.c ****     }
 221              		.loc 1 78 31
 222 00b6 054A     		ldr	r2, .L16+4
 223 00b8 5360     		str	r3, [r2, #4]	@ float
 224              	.L15:
 225              		.loc 1 80 1
 226 00ba 00BF     		nop
 227 00bc 0837     		adds	r7, r7, #8
 228              	.LCFI6:
 229              		.cfi_def_cfa_offset 16
 230 00be BD46     		mov	sp, r7
 231              	.LCFI7:
 232              		.cfi_def_cfa_register 13
 233              		@ sp needed
 234 00c0 BDEC028B 		vldm	sp!, {d8}
 235              	.LCFI8:
 236              		.cfi_restore 80
 237              		.cfi_restore 81
 238              		.cfi_def_cfa_offset 8
 239 00c4 80BD     		pop	{r7, pc}
 240              	.L17:
 241 00c6 00BF     		.align	2
 242              	.L16:
 243 00c8 00000000 		.word	target_angles
 244 00cc 00000000 		.word	current_angles
 245 00d0 C2B8B23D 		.word	1035122882
 246              		.cfi_endproc
 247              	.LFE135:
 249              		.section	.text.ArmControl_Update,"ax",%progbits
 250              		.align	1
 251              		.global	ArmControl_Update
 252              		.syntax unified
 253              		.thumb
 254              		.thumb_func
 256              	ArmControl_Update:
 257              	.LFB136:
  81:Module/arm_control/arm_control.c **** 
  82:Module/arm_control/arm_control.c **** // 更新机械臂控制
  83:Module/arm_control/arm_control.c **** void ArmControl_Update(void)
  84:Module/arm_control/arm_control.c **** {
 258              		.loc 1 84 1
 259              		.cfi_startproc
 260              		@ args = 0, pretend = 0, frame = 16
 261              		@ frame_needed = 1, uses_anonymous_args = 0
 262 0000 90B5     		push	{r4, r7, lr}
 263              	.LCFI9:
ARM GAS  C:\Users\30514\AppData\Local\Temp\ccabBB2v.s 			page 7


 264              		.cfi_def_cfa_offset 12
 265              		.cfi_offset 4, -12
 266              		.cfi_offset 7, -8
 267              		.cfi_offset 14, -4
 268 0002 85B0     		sub	sp, sp, #20
 269              	.LCFI10:
 270              		.cfi_def_cfa_offset 32
 271 0004 00AF     		add	r7, sp, #0
 272              	.LCFI11:
 273              		.cfi_def_cfa_register 7
  85:Module/arm_control/arm_control.c ****     // 检查遥控器是否激活
  86:Module/arm_control/arm_control.c ****     if (remote_control_active())
 274              		.loc 1 86 9
 275 0006 FFF7FEFF 		bl	remote_control_active
 276 000a 0346     		mov	r3, r0
 277              		.loc 1 86 8 discriminator 1
 278 000c 002B     		cmp	r3, #0
 279 000e 0DD0     		beq	.L19
 280              	.LBB2:
  87:Module/arm_control/arm_control.c ****     {
  88:Module/arm_control/arm_control.c ****         // 获取遥控器映射的关节角度
  89:Module/arm_control/arm_control.c ****         JointAngles new_angles = Map_To_JointSpace();
 281              		.loc 1 89 34
 282 0010 3B1D     		adds	r3, r7, #4
 283 0012 1846     		mov	r0, r3
 284 0014 FFF7FEFF 		bl	Map_To_JointSpace
  90:Module/arm_control/arm_control.c **** 
  91:Module/arm_control/arm_control.c ****         // 如果映射有效，则更新目标角度
  92:Module/arm_control/arm_control.c ****         if (new_angles.valid)
 285              		.loc 1 92 23
 286 0018 3B7B     		ldrb	r3, [r7, #12]	@ zero_extendqisi2
 287              		.loc 1 92 12
 288 001a 002B     		cmp	r3, #0
 289 001c 06D0     		beq	.L19
  93:Module/arm_control/arm_control.c ****         {
  94:Module/arm_control/arm_control.c ****             target_angles = new_angles;
 290              		.loc 1 94 27
 291 001e 134B     		ldr	r3, .L21
 292 0020 1C46     		mov	r4, r3
 293 0022 3B1D     		adds	r3, r7, #4
 294 0024 93E80700 		ldm	r3, {r0, r1, r2}
 295 0028 84E80700 		stm	r4, {r0, r1, r2}
 296              	.L19:
 297              	.LBE2:
  95:Module/arm_control/arm_control.c ****         }
  96:Module/arm_control/arm_control.c ****     }
  97:Module/arm_control/arm_control.c **** 
  98:Module/arm_control/arm_control.c ****     // 应用平滑处理
  99:Module/arm_control/arm_control.c ****     Apply_Smoothing();
 298              		.loc 1 99 5
 299 002c FFF7FEFF 		bl	Apply_Smoothing
 100:Module/arm_control/arm_control.c **** 
 101:Module/arm_control/arm_control.c ****     motor[Motor1].ctrl.mode = 0; // MIT模式
 300              		.loc 1 101 29
 301 0030 0F4B     		ldr	r3, .L21+4
 302 0032 0022     		movs	r2, #0
 303 0034 83F83C20 		strb	r2, [r3, #60]
ARM GAS  C:\Users\30514\AppData\Local\Temp\ccabBB2v.s 			page 8


 102:Module/arm_control/arm_control.c ****     motor[Motor2].ctrl.mode = 0; // MIT模式
 304              		.loc 1 102 29
 305 0038 0D4B     		ldr	r3, .L21+4
 306 003a 0022     		movs	r2, #0
 307 003c 83F8A820 		strb	r2, [r3, #168]
 103:Module/arm_control/arm_control.c **** 
 104:Module/arm_control/arm_control.c ****     // 直接应用平滑后的角度到电机
 105:Module/arm_control/arm_control.c ****     // 应用关节1角度
 106:Module/arm_control/arm_control.c ****     motor[Motor1].cmd.pos_set = current_angles.theta1;
 308              		.loc 1 106 47
 309 0040 0C4B     		ldr	r3, .L21+8
 310 0042 1B68     		ldr	r3, [r3]	@ float
 311              		.loc 1 106 31
 312 0044 0A4A     		ldr	r2, .L21+4
 313 0046 9365     		str	r3, [r2, #88]	@ float
 107:Module/arm_control/arm_control.c ****     dm4310_set(&motor[Motor1]);
 314              		.loc 1 107 5
 315 0048 0948     		ldr	r0, .L21+4
 316 004a FFF7FEFF 		bl	dm4310_set
 108:Module/arm_control/arm_control.c **** 
 109:Module/arm_control/arm_control.c ****     // 应用关节2角度
 110:Module/arm_control/arm_control.c ****     motor[Motor2].cmd.pos_set = current_angles.theta2;
 317              		.loc 1 110 47
 318 004e 094B     		ldr	r3, .L21+8
 319 0050 5B68     		ldr	r3, [r3, #4]	@ float
 320              		.loc 1 110 31
 321 0052 074A     		ldr	r2, .L21+4
 322 0054 C2F8C430 		str	r3, [r2, #196]	@ float
 111:Module/arm_control/arm_control.c ****     dm4310_set(&motor[Motor2]);
 323              		.loc 1 111 5
 324 0058 0748     		ldr	r0, .L21+12
 325 005a FFF7FEFF 		bl	dm4310_set
 112:Module/arm_control/arm_control.c **** 
 113:Module/arm_control/arm_control.c ****     // 发送控制命令
 114:Module/arm_control/arm_control.c ****     ctrl_send(ALL_MOTORS);
 326              		.loc 1 114 5
 327 005e 0320     		movs	r0, #3
 328 0060 FFF7FEFF 		bl	ctrl_send
 115:Module/arm_control/arm_control.c **** }...
 329              		.loc 1 115 1
 330 0064 00BF     		nop
 331 0066 1437     		adds	r7, r7, #20
 332              	.LCFI12:
 333              		.cfi_def_cfa_offset 12
 334 0068 BD46     		mov	sp, r7
 335              	.LCFI13:
 336              		.cfi_def_cfa_register 13
 337              		@ sp needed
 338 006a 90BD     		pop	{r4, r7, pc}
 339              	.L22:
 340              		.align	2
 341              	.L21:
 342 006c 00000000 		.word	target_angles
 343 0070 00000000 		.word	motor
 344 0074 00000000 		.word	current_angles
 345 0078 6C000000 		.word	motor+108
 346              		.cfi_endproc
ARM GAS  C:\Users\30514\AppData\Local\Temp\ccabBB2v.s 			page 9


 347              	.LFE136:
 349              		.text
 350              	.Letext0:
 351              		.file 2 "D:/enviroment/msys2/mingw64/arm-none-eabi/include/machine/_default_types.h"
 352              		.file 3 "D:/enviroment/msys2/mingw64/arm-none-eabi/include/sys/_stdint.h"
 353              		.file 4 "Module/coordinate/coordinate_mapping.h"
 354              		.file 5 "Module/motor/dm_drv.h"
 355              		.file 6 "Module/motor/dm_ctrl.h"
 356              		.file 7 "Module/remote_control/remote_control.h"
 357              		.file 8 "D:/enviroment/msys2/mingw64/arm-none-eabi/include/math.h"
ARM GAS  C:\Users\30514\AppData\Local\Temp\ccabBB2v.s 			page 10

