ARM GAS  C:\Users\30514\AppData\Local\Temp\ccgU6XYJ.s 			page 1


   1              		.cpu cortex-m4
   2              		.arch armv7e-m
   3              		.fpu fpv4-sp-d16
   4              		.eabi_attribute 27, 1
   5              		.eabi_attribute 28, 1
   6              		.eabi_attribute 20, 1
   7              		.eabi_attribute 21, 1
   8              		.eabi_attribute 23, 3
   9              		.eabi_attribute 24, 1
  10              		.eabi_attribute 25, 1
  11              		.eabi_attribute 26, 1
  12              		.eabi_attribute 30, 6
  13              		.eabi_attribute 34, 1
  14              		.eabi_attribute 18, 4
  15              		.file	"arm_control.c"
  16              		.text
  17              	.Ltext0:
  18              		.cfi_sections	.debug_frame
  19              		.file 1 "Module/arm_control/arm_control.c"
  20              		.section	.bss.target_angles,"aw",%nobits
  21              		.align	2
  24              	target_angles:
  25 0000 00000000 		.space	12
  25      00000000 
  25      00000000 
  26              		.section	.bss.current_angles,"aw",%nobits
  27              		.align	2
  30              	current_angles:
  31 0000 00000000 		.space	12
  31      00000000 
  31      00000000 
  32              		.section	.rodata.MAX_ANGLE_STEP,"a"
  33              		.align	2
  36              	MAX_ANGLE_STEP:
  37 0000 C2B8B23D 		.word	1035122882
  38              		.section	.text.ArmControl_Init,"ax",%progbits
  39              		.align	1
  40              		.global	ArmControl_Init
  41              		.syntax unified
  42              		.thumb
  43              		.thumb_func
  45              	ArmControl_Init:
  46              	.LFB134:
   1:Module/arm_control/arm_control.c **** #include "arm_control.h"
   2:Module/arm_control/arm_control.c **** #include "main.h"
   3:Module/arm_control/arm_control.c **** #include "math.h"
   4:Module/arm_control/arm_control.c **** #include "remote_control.h"  // 包含remote_control_active声明
   5:Module/arm_control/arm_control.c **** #include "dm_ctrl.h"
   6:Module/arm_control/arm_control.c **** #include "coordinate_mapping.h"
   7:Module/arm_control/arm_control.c **** 
   8:Module/arm_control/arm_control.c **** // 定义π常量
   9:Module/arm_control/arm_control.c **** #ifndef M_PI
  10:Module/arm_control/arm_control.c **** #define M_PI 3.14159265358979323846f
  11:Module/arm_control/arm_control.c **** #endif
  12:Module/arm_control/arm_control.c **** 
  13:Module/arm_control/arm_control.c **** // 角度转换宏
  14:Module/arm_control/arm_control.c **** #define DEG_TO_RAD(x) ((x) * M_PI / 180.0f)
ARM GAS  C:\Users\30514\AppData\Local\Temp\ccgU6XYJ.s 			page 2


  15:Module/arm_control/arm_control.c **** 
  16:Module/arm_control/arm_control.c **** // 当前目标角度
  17:Module/arm_control/arm_control.c **** static JointAngles target_angles;
  18:Module/arm_control/arm_control.c **** // 当前执行角度
  19:Module/arm_control/arm_control.c **** static JointAngles current_angles;
  20:Module/arm_control/arm_control.c **** 
  21:Module/arm_control/arm_control.c **** // 最大角度变化率 (约5度/控制周期)
  22:Module/arm_control/arm_control.c **** static const float MAX_ANGLE_STEP = DEG_TO_RAD(5.0f);
  23:Module/arm_control/arm_control.c **** 
  24:Module/arm_control/arm_control.c **** // 初始化函数
  25:Module/arm_control/arm_control.c **** void ArmControl_Init(void) 
  26:Module/arm_control/arm_control.c **** {
  47              		.loc 1 26 1
  48              		.cfi_startproc
  49              		@ args = 0, pretend = 0, frame = 0
  50              		@ frame_needed = 1, uses_anonymous_args = 0
  51 0000 80B5     		push	{r7, lr}
  52              	.LCFI0:
  53              		.cfi_def_cfa_offset 8
  54              		.cfi_offset 7, -8
  55              		.cfi_offset 14, -4
  56 0002 00AF     		add	r7, sp, #0
  57              	.LCFI1:
  58              		.cfi_def_cfa_register 7
  27:Module/arm_control/arm_control.c ****     // 设置工作空间范围（使用默认值）
  28:Module/arm_control/arm_control.c ****     Set_Joint_Ranges(
  59              		.loc 1 28 5
  60 0004 DFED111A 		vldr.32	s3, .L2
  61 0008 9FED111A 		vldr.32	s2, .L2+4
  62 000c DFED110A 		vldr.32	s1, .L2+8
  63 0010 9FED110A 		vldr.32	s0, .L2+12
  64 0014 FFF7FEFF 		bl	Set_Joint_Ranges
  29:Module/arm_control/arm_control.c ****         -M_PI,          // 关节1最小角度 -180°
  30:Module/arm_control/arm_control.c ****         M_PI,           // 关节1最大角度 180°
  31:Module/arm_control/arm_control.c ****         -3*M_PI/4,      // 关节2最小角度 -135°
  32:Module/arm_control/arm_control.c ****         -M_PI/4         // 关节2最大角度 -45°
  33:Module/arm_control/arm_control.c ****     );
  34:Module/arm_control/arm_control.c ****     
  35:Module/arm_control/arm_control.c ****     // 设置摇杆通道（使用默认配置）
  36:Module/arm_control/arm_control.c ****     Set_Stick_Channels(1, 2);
  65              		.loc 1 36 5
  66 0018 0221     		movs	r1, #2
  67 001a 0120     		movs	r0, #1
  68 001c FFF7FEFF 		bl	Set_Stick_Channels
  37:Module/arm_control/arm_control.c ****     
  38:Module/arm_control/arm_control.c ****     // 初始化电机
  39:Module/arm_control/arm_control.c ****     dm4310_motor_init();
  69              		.loc 1 39 5
  70 0020 FFF7FEFF 		bl	dm4310_motor_init
  40:Module/arm_control/arm_control.c ****     
  41:Module/arm_control/arm_control.c ****     // 启用电机控制
  42:Module/arm_control/arm_control.c ****     ctrl_enable(ALL_MOTORS);
  71              		.loc 1 42 5
  72 0024 0320     		movs	r0, #3
  73 0026 FFF7FEFF 		bl	ctrl_enable
  43:Module/arm_control/arm_control.c ****     
  44:Module/arm_control/arm_control.c ****     // 初始化角度为安全位置
ARM GAS  C:\Users\30514\AppData\Local\Temp\ccgU6XYJ.s 			page 3


  45:Module/arm_control/arm_control.c ****     target_angles.theta1 = 0.0f;
  74              		.loc 1 45 26
  75 002a 0C4B     		ldr	r3, .L2+16
  76 002c 4FF00002 		mov	r2, #0
  77 0030 1A60     		str	r2, [r3]	@ float
  46:Module/arm_control/arm_control.c ****     target_angles.theta2 = -M_PI/2;  // -90度
  78              		.loc 1 46 26
  79 0032 0A4B     		ldr	r3, .L2+16
  80 0034 0A4A     		ldr	r2, .L2+20
  81 0036 5A60     		str	r2, [r3, #4]	@ float
  47:Module/arm_control/arm_control.c ****     target_angles.valid = true;
  82              		.loc 1 47 25
  83 0038 084B     		ldr	r3, .L2+16
  84 003a 0122     		movs	r2, #1
  85 003c 1A72     		strb	r2, [r3, #8]
  48:Module/arm_control/arm_control.c ****     current_angles = target_angles;  // 初始当前角度等于目标角度
  86              		.loc 1 48 20
  87 003e 094B     		ldr	r3, .L2+24
  88 0040 064A     		ldr	r2, .L2+16
  89 0042 07CA     		ldm	r2, {r0, r1, r2}
  90 0044 83E80700 		stm	r3, {r0, r1, r2}
  49:Module/arm_control/arm_control.c **** }
  91              		.loc 1 49 1
  92 0048 00BF     		nop
  93 004a 80BD     		pop	{r7, pc}
  94              	.L3:
  95              		.align	2
  96              	.L2:
  97 004c DB0F49BF 		.word	-1085730853
  98 0050 E4CB16C0 		.word	-1072247836
  99 0054 DB0F4940 		.word	1078530011
 100 0058 DB0F49C0 		.word	-1068953637
 101 005c 00000000 		.word	target_angles
 102 0060 DB0FC9BF 		.word	-1077342245
 103 0064 00000000 		.word	current_angles
 104              		.cfi_endproc
 105              	.LFE134:
 107              		.section	.text.Apply_Smoothing,"ax",%progbits
 108              		.align	1
 109              		.syntax unified
 110              		.thumb
 111              		.thumb_func
 113              	Apply_Smoothing:
 114              	.LFB135:
  50:Module/arm_control/arm_control.c **** 
  51:Module/arm_control/arm_control.c **** // 应用平滑处理
  52:Module/arm_control/arm_control.c **** static void Apply_Smoothing(void)
  53:Module/arm_control/arm_control.c **** {
 115              		.loc 1 53 1
 116              		.cfi_startproc
 117              		@ args = 0, pretend = 0, frame = 8
 118              		@ frame_needed = 1, uses_anonymous_args = 0
 119 0000 80B5     		push	{r7, lr}
 120              	.LCFI2:
 121              		.cfi_def_cfa_offset 8
 122              		.cfi_offset 7, -8
 123              		.cfi_offset 14, -4
ARM GAS  C:\Users\30514\AppData\Local\Temp\ccgU6XYJ.s 			page 4


 124 0002 2DED028B 		vpush.64	{d8}
 125              	.LCFI3:
 126              		.cfi_def_cfa_offset 16
 127              		.cfi_offset 80, -16
 128              		.cfi_offset 81, -12
 129 0006 82B0     		sub	sp, sp, #8
 130              	.LCFI4:
 131              		.cfi_def_cfa_offset 24
 132 0008 00AF     		add	r7, sp, #0
 133              	.LCFI5:
 134              		.cfi_def_cfa_register 7
  54:Module/arm_control/arm_control.c ****     // 关节1平滑
  55:Module/arm_control/arm_control.c ****     float delta1 = target_angles.theta1 - current_angles.theta1;
 135              		.loc 1 55 33
 136 000a 2F4B     		ldr	r3, .L16
 137 000c 93ED007A 		vldr.32	s14, [r3]
 138              		.loc 1 55 57
 139 0010 2E4B     		ldr	r3, .L16+4
 140 0012 D3ED007A 		vldr.32	s15, [r3]
 141              		.loc 1 55 11
 142 0016 77EE677A 		vsub.f32	s15, s14, s15
 143 001a C7ED017A 		vstr.32	s15, [r7, #4]
  56:Module/arm_control/arm_control.c ****     if(fabsf(delta1) > MAX_ANGLE_STEP) {
 144              		.loc 1 56 8
 145 001e D7ED017A 		vldr.32	s15, [r7, #4]
 146 0022 F0EEE77A 		vabs.f32	s15, s15
 147              		.loc 1 56 22
 148 0026 9FED2A7A 		vldr.32	s14, .L16+8
 149              		.loc 1 56 7
 150 002a F4EEC77A 		vcmpe.f32	s15, s14
 151 002e F1EE10FA 		vmrs	APSR_nzcv, FPSCR
 152 0032 12DD     		ble	.L13
  57:Module/arm_control/arm_control.c ****         current_angles.theta1 += copysignf(MAX_ANGLE_STEP, delta1);
 153              		.loc 1 57 23
 154 0034 254B     		ldr	r3, .L16+4
 155 0036 93ED008A 		vldr.32	s16, [r3]
 156              		.loc 1 57 34
 157 003a DFED257A 		vldr.32	s15, .L16+8
 158 003e D7ED010A 		vldr.32	s1, [r7, #4]
 159 0042 B0EE670A 		vmov.f32	s0, s15
 160 0046 FFF7FEFF 		bl	copysignf
 161 004a F0EE407A 		vmov.f32	s15, s0
 162              		.loc 1 57 31 discriminator 1
 163 004e 78EE277A 		vadd.f32	s15, s16, s15
 164 0052 1E4B     		ldr	r3, .L16+4
 165 0054 C3ED007A 		vstr.32	s15, [r3]
 166 0058 03E0     		b	.L7
 167              	.L13:
  58:Module/arm_control/arm_control.c ****     } else {
  59:Module/arm_control/arm_control.c ****         current_angles.theta1 = target_angles.theta1;
 168              		.loc 1 59 46
 169 005a 1B4B     		ldr	r3, .L16
 170 005c 1B68     		ldr	r3, [r3]	@ float
 171              		.loc 1 59 31
 172 005e 1B4A     		ldr	r2, .L16+4
 173 0060 1360     		str	r3, [r2]	@ float
 174              	.L7:
ARM GAS  C:\Users\30514\AppData\Local\Temp\ccgU6XYJ.s 			page 5


  60:Module/arm_control/arm_control.c ****     }
  61:Module/arm_control/arm_control.c ****     
  62:Module/arm_control/arm_control.c ****     // 关节2平滑
  63:Module/arm_control/arm_control.c ****     float delta2 = target_angles.theta2 - current_angles.theta2;
 175              		.loc 1 63 33
 176 0062 194B     		ldr	r3, .L16
 177 0064 93ED017A 		vldr.32	s14, [r3, #4]
 178              		.loc 1 63 57
 179 0068 184B     		ldr	r3, .L16+4
 180 006a D3ED017A 		vldr.32	s15, [r3, #4]
 181              		.loc 1 63 11
 182 006e 77EE677A 		vsub.f32	s15, s14, s15
 183 0072 C7ED007A 		vstr.32	s15, [r7]
  64:Module/arm_control/arm_control.c ****     if(fabsf(delta2) > MAX_ANGLE_STEP) {
 184              		.loc 1 64 8
 185 0076 D7ED007A 		vldr.32	s15, [r7]
 186 007a F0EEE77A 		vabs.f32	s15, s15
 187              		.loc 1 64 22
 188 007e 9FED147A 		vldr.32	s14, .L16+8
 189              		.loc 1 64 7
 190 0082 F4EEC77A 		vcmpe.f32	s15, s14
 191 0086 F1EE10FA 		vmrs	APSR_nzcv, FPSCR
 192 008a 12DD     		ble	.L14
  65:Module/arm_control/arm_control.c ****         current_angles.theta2 += copysignf(MAX_ANGLE_STEP, delta2);
 193              		.loc 1 65 23
 194 008c 0F4B     		ldr	r3, .L16+4
 195 008e 93ED018A 		vldr.32	s16, [r3, #4]
 196              		.loc 1 65 34
 197 0092 DFED0F7A 		vldr.32	s15, .L16+8
 198 0096 D7ED000A 		vldr.32	s1, [r7]
 199 009a B0EE670A 		vmov.f32	s0, s15
 200 009e FFF7FEFF 		bl	copysignf
 201 00a2 F0EE407A 		vmov.f32	s15, s0
 202              		.loc 1 65 31 discriminator 1
 203 00a6 78EE277A 		vadd.f32	s15, s16, s15
 204 00aa 084B     		ldr	r3, .L16+4
 205 00ac C3ED017A 		vstr.32	s15, [r3, #4]
  66:Module/arm_control/arm_control.c ****     } else {
  67:Module/arm_control/arm_control.c ****         current_angles.theta2 = target_angles.theta2;
  68:Module/arm_control/arm_control.c ****     }
  69:Module/arm_control/arm_control.c **** }
 206              		.loc 1 69 1
 207 00b0 03E0     		b	.L15
 208              	.L14:
  67:Module/arm_control/arm_control.c ****     }
 209              		.loc 1 67 46
 210 00b2 054B     		ldr	r3, .L16
 211 00b4 5B68     		ldr	r3, [r3, #4]	@ float
  67:Module/arm_control/arm_control.c ****     }
 212              		.loc 1 67 31
 213 00b6 054A     		ldr	r2, .L16+4
 214 00b8 5360     		str	r3, [r2, #4]	@ float
 215              	.L15:
 216              		.loc 1 69 1
 217 00ba 00BF     		nop
 218 00bc 0837     		adds	r7, r7, #8
 219              	.LCFI6:
ARM GAS  C:\Users\30514\AppData\Local\Temp\ccgU6XYJ.s 			page 6


 220              		.cfi_def_cfa_offset 16
 221 00be BD46     		mov	sp, r7
 222              	.LCFI7:
 223              		.cfi_def_cfa_register 13
 224              		@ sp needed
 225 00c0 BDEC028B 		vldm	sp!, {d8}
 226              	.LCFI8:
 227              		.cfi_restore 80
 228              		.cfi_restore 81
 229              		.cfi_def_cfa_offset 8
 230 00c4 80BD     		pop	{r7, pc}
 231              	.L17:
 232 00c6 00BF     		.align	2
 233              	.L16:
 234 00c8 00000000 		.word	target_angles
 235 00cc 00000000 		.word	current_angles
 236 00d0 C2B8B23D 		.word	1035122882
 237              		.cfi_endproc
 238              	.LFE135:
 240              		.section	.text.ArmControl_Update,"ax",%progbits
 241              		.align	1
 242              		.global	ArmControl_Update
 243              		.syntax unified
 244              		.thumb
 245              		.thumb_func
 247              	ArmControl_Update:
 248              	.LFB136:
  70:Module/arm_control/arm_control.c **** 
  71:Module/arm_control/arm_control.c **** // 更新机械臂控制
  72:Module/arm_control/arm_control.c **** void ArmControl_Update(void) 
  73:Module/arm_control/arm_control.c **** {
 249              		.loc 1 73 1
 250              		.cfi_startproc
 251              		@ args = 0, pretend = 0, frame = 16
 252              		@ frame_needed = 1, uses_anonymous_args = 0
 253 0000 90B5     		push	{r4, r7, lr}
 254              	.LCFI9:
 255              		.cfi_def_cfa_offset 12
 256              		.cfi_offset 4, -12
 257              		.cfi_offset 7, -8
 258              		.cfi_offset 14, -4
 259 0002 85B0     		sub	sp, sp, #20
 260              	.LCFI10:
 261              		.cfi_def_cfa_offset 32
 262 0004 00AF     		add	r7, sp, #0
 263              	.LCFI11:
 264              		.cfi_def_cfa_register 7
  74:Module/arm_control/arm_control.c ****     // 检查遥控器是否激活
  75:Module/arm_control/arm_control.c ****     if (remote_control_active()) 
 265              		.loc 1 75 9
 266 0006 FFF7FEFF 		bl	remote_control_active
 267 000a 0346     		mov	r3, r0
 268              		.loc 1 75 8 discriminator 1
 269 000c 002B     		cmp	r3, #0
 270 000e 0DD0     		beq	.L19
 271              	.LBB2:
  76:Module/arm_control/arm_control.c ****     {
ARM GAS  C:\Users\30514\AppData\Local\Temp\ccgU6XYJ.s 			page 7


  77:Module/arm_control/arm_control.c ****         // 获取遥控器映射的关节角度
  78:Module/arm_control/arm_control.c ****         JointAngles new_angles = Map_To_JointSpace();
 272              		.loc 1 78 34
 273 0010 3B1D     		adds	r3, r7, #4
 274 0012 1846     		mov	r0, r3
 275 0014 FFF7FEFF 		bl	Map_To_JointSpace
  79:Module/arm_control/arm_control.c ****         
  80:Module/arm_control/arm_control.c ****         // 如果映射有效，则更新目标角度
  81:Module/arm_control/arm_control.c ****         if (new_angles.valid) {
 276              		.loc 1 81 23
 277 0018 3B7B     		ldrb	r3, [r7, #12]	@ zero_extendqisi2
 278              		.loc 1 81 12
 279 001a 002B     		cmp	r3, #0
 280 001c 06D0     		beq	.L19
  82:Module/arm_control/arm_control.c ****             target_angles = new_angles;
 281              		.loc 1 82 27
 282 001e 0F4B     		ldr	r3, .L21
 283 0020 1C46     		mov	r4, r3
 284 0022 3B1D     		adds	r3, r7, #4
 285 0024 93E80700 		ldm	r3, {r0, r1, r2}
 286 0028 84E80700 		stm	r4, {r0, r1, r2}
 287              	.L19:
 288              	.LBE2:
  83:Module/arm_control/arm_control.c ****         }
  84:Module/arm_control/arm_control.c ****     }
  85:Module/arm_control/arm_control.c ****     
  86:Module/arm_control/arm_control.c ****     // 应用平滑处理
  87:Module/arm_control/arm_control.c ****     Apply_Smoothing();
 289              		.loc 1 87 5
 290 002c FFF7FEFF 		bl	Apply_Smoothing
  88:Module/arm_control/arm_control.c ****     
  89:Module/arm_control/arm_control.c ****     // 直接应用平滑后的角度到电机
  90:Module/arm_control/arm_control.c ****     // 应用关节1角度
  91:Module/arm_control/arm_control.c ****     motor[Motor1].cmd.pos_set = current_angles.theta1;
 291              		.loc 1 91 47
 292 0030 0B4B     		ldr	r3, .L21+4
 293 0032 1B68     		ldr	r3, [r3]	@ float
 294              		.loc 1 91 31
 295 0034 0B4A     		ldr	r2, .L21+8
 296 0036 9365     		str	r3, [r2, #88]	@ float
  92:Module/arm_control/arm_control.c ****     dm4310_set(&motor[Motor1]);
 297              		.loc 1 92 5
 298 0038 0A48     		ldr	r0, .L21+8
 299 003a FFF7FEFF 		bl	dm4310_set
  93:Module/arm_control/arm_control.c ****     
  94:Module/arm_control/arm_control.c ****     // 应用关节2角度
  95:Module/arm_control/arm_control.c ****     motor[Motor2].cmd.pos_set = current_angles.theta2;
 300              		.loc 1 95 47
 301 003e 084B     		ldr	r3, .L21+4
 302 0040 5B68     		ldr	r3, [r3, #4]	@ float
 303              		.loc 1 95 31
 304 0042 084A     		ldr	r2, .L21+8
 305 0044 C2F8C430 		str	r3, [r2, #196]	@ float
  96:Module/arm_control/arm_control.c ****     dm4310_set(&motor[Motor2]);
 306              		.loc 1 96 5
 307 0048 0748     		ldr	r0, .L21+12
 308 004a FFF7FEFF 		bl	dm4310_set
ARM GAS  C:\Users\30514\AppData\Local\Temp\ccgU6XYJ.s 			page 8


  97:Module/arm_control/arm_control.c ****     
  98:Module/arm_control/arm_control.c ****     // 发送控制命令
  99:Module/arm_control/arm_control.c ****     ctrl_send(ALL_MOTORS);
 309              		.loc 1 99 5
 310 004e 0320     		movs	r0, #3
 311 0050 FFF7FEFF 		bl	ctrl_send
 100:Module/arm_control/arm_control.c **** }...
 312              		.loc 1 100 1
 313 0054 00BF     		nop
 314 0056 1437     		adds	r7, r7, #20
 315              	.LCFI12:
 316              		.cfi_def_cfa_offset 12
 317 0058 BD46     		mov	sp, r7
 318              	.LCFI13:
 319              		.cfi_def_cfa_register 13
 320              		@ sp needed
 321 005a 90BD     		pop	{r4, r7, pc}
 322              	.L22:
 323              		.align	2
 324              	.L21:
 325 005c 00000000 		.word	target_angles
 326 0060 00000000 		.word	current_angles
 327 0064 00000000 		.word	motor
 328 0068 6C000000 		.word	motor+108
 329              		.cfi_endproc
 330              	.LFE136:
 332              		.text
 333              	.Letext0:
 334              		.file 2 "D:/enviroment/msys2/mingw64/arm-none-eabi/include/machine/_default_types.h"
 335              		.file 3 "D:/enviroment/msys2/mingw64/arm-none-eabi/include/sys/_stdint.h"
 336              		.file 4 "Module/coordinate/coordinate_mapping.h"
 337              		.file 5 "Module/motor/dm_drv.h"
 338              		.file 6 "Module/motor/dm_ctrl.h"
 339              		.file 7 "Module/remote_control/remote_control.h"
 340              		.file 8 "D:/enviroment/msys2/mingw64/arm-none-eabi/include/math.h"
ARM GAS  C:\Users\30514\AppData\Local\Temp\ccgU6XYJ.s 			page 9


DEFINED SYMBOLS
                            *ABS*:00000000 arm_control.c
C:\Users\30514\AppData\Local\Temp\ccgU6XYJ.s:21     .bss.target_angles:00000000 $d
C:\Users\30514\AppData\Local\Temp\ccgU6XYJ.s:24     .bss.target_angles:00000000 target_angles
C:\Users\30514\AppData\Local\Temp\ccgU6XYJ.s:27     .bss.current_angles:00000000 $d
C:\Users\30514\AppData\Local\Temp\ccgU6XYJ.s:30     .bss.current_angles:00000000 current_angles
C:\Users\30514\AppData\Local\Temp\ccgU6XYJ.s:33     .rodata.MAX_ANGLE_STEP:00000000 $d
C:\Users\30514\AppData\Local\Temp\ccgU6XYJ.s:36     .rodata.MAX_ANGLE_STEP:00000000 MAX_ANGLE_STEP
C:\Users\30514\AppData\Local\Temp\ccgU6XYJ.s:39     .text.ArmControl_Init:00000000 $t
C:\Users\30514\AppData\Local\Temp\ccgU6XYJ.s:45     .text.ArmControl_Init:00000000 ArmControl_Init
C:\Users\30514\AppData\Local\Temp\ccgU6XYJ.s:97     .text.ArmControl_Init:0000004c $d
C:\Users\30514\AppData\Local\Temp\ccgU6XYJ.s:108    .text.Apply_Smoothing:00000000 $t
C:\Users\30514\AppData\Local\Temp\ccgU6XYJ.s:113    .text.Apply_Smoothing:00000000 Apply_Smoothing
C:\Users\30514\AppData\Local\Temp\ccgU6XYJ.s:234    .text.Apply_Smoothing:000000c8 $d
C:\Users\30514\AppData\Local\Temp\ccgU6XYJ.s:241    .text.ArmControl_Update:00000000 $t
C:\Users\30514\AppData\Local\Temp\ccgU6XYJ.s:247    .text.ArmControl_Update:00000000 ArmControl_Update
C:\Users\30514\AppData\Local\Temp\ccgU6XYJ.s:325    .text.ArmControl_Update:0000005c $d
                           .group:00000000 wm4.0.3e68c699c40fadf7e6c1e499de837233
                           .group:00000000 wm4.stdbool.h.29.c08aa3eec75cf5b9b5003883f43253f0
                           .group:00000000 wm4._newlib_version.h.4.0eb654b64686e2bd29646258853f6c22
                           .group:00000000 wm4.features.h.33.d554620bb17bd3b714c3fb5c268772bc
                           .group:00000000 wm4._default_types.h.15.247e5cd201eca3442cbf5404108c4935
                           .group:00000000 wm4._intsup.h.10.48bafbb683905c4daa4565a85aeeb264
                           .group:00000000 wm4._stdint.h.10.c24fa3af3bc1706662bb5593a907e841
                           .group:00000000 wm4.stdint.h.23.d53047a68f4a85177f80b422d52785ed
                           .group:00000000 wm4.remote_control.h.2.d5ede23e17e0664e5394033a072c4472
                           .group:00000000 wm4.stm32f4xx_hal_conf.h.25.a9a6e27d8b41172b5af7d7631d763ee0
                           .group:00000000 wm4.stm32f4xx.h.38.63e3ea23bd63a94457417730025259b6
                           .group:00000000 wm4.stm32f446xx.h.34.dd43cebd7192f96bce7a5ff975201274
                           .group:00000000 wm4.cmsis_version.h.32.0ac195c83bb4537824e6ad1c47474b79
                           .group:00000000 wm4.core_cm4.h.66.e4ff136c4a17abc46741866f64f8e729
                           .group:00000000 wm4.cmsis_gcc.h.26.498d0ad17a45fc9ef20fdc01caf02259
                           .group:00000000 wm4.core_cm4.h.174.62be9b4588d49bed18171771001331df
                           .group:00000000 wm4.mpu_armv7.h.32.83326921a797fa9d6f70449916b4b839
                           .group:00000000 wm4.stm32f446xx.h.917.13927c85cbbf4787955bc4173c54fa12
                           .group:00000000 wm4.stm32f4xx.h.195.a4b8bf80f37cc96981498656ffe5f588
                           .group:00000000 wm4.stm32_hal_legacy.h.22.8b7d303dc46a0b7ac6d3edf19ce2608d
                           .group:00000000 wm4.stddef.h.39.0dc9006b34572d4d9cae4c8b422c4971
                           .group:00000000 wm4.stm32f4xx_hal_def.h.58.3cb484e92e5ccf2e55312a4714e27917
                           .group:00000000 wm4.stm32f4xx_hal_rcc_ex.h.20.9b6e314009d4800dd71c0ec1c264a1ea
                           .group:00000000 wm4.stm32f4xx_hal_rcc.h.106.0887cf5d985ae88e345b0aed0ceb4729
                           .group:00000000 wm4.stm32f4xx_hal_gpio.h.21.22da6a14b6049d6ac156577be74df1d7
                           .group:00000000 wm4.stm32f4xx_hal_gpio_ex.h.21.33ea7ea24fd170b1d3dce3d23330c9d3
                           .group:00000000 wm4.stm32f4xx_hal_gpio.h.254.d7e07832f748fe8bcb575db0b8373592
                           .group:00000000 wm4.stm32f4xx_hal_exti.h.21.4fc7f37c3cc97fb821b368ede79414b6
                           .group:00000000 wm4.stm32f4xx_hal_dma.h.21.8e4b1421c914345c23be719e5e528779
                           .group:00000000 wm4.stm32f4xx_hal_dma.h.720.ac2d7eef74792e4026acc4d2923c5da4
                           .group:00000000 wm4.stm32f4xx_hal_cortex.h.20.03673e4f79386680bf73ba399c19306b
                           .group:00000000 wm4.stm32f4xx_hal_can.h.21.4b16c8dedf31ba328482231f811a7e65
                           .group:00000000 wm4.stm32f4xx_hal_flash.h.20.2f1e0d1b7010b3a81a7980aaf712e7e5
                           .group:00000000 wm4.stm32f4xx_hal_flash_ex.h.20.77cb3e5c0f1e426426a4cbc884a1eed8
                           .group:00000000 wm4.stm32f4xx_hal_flash.h.361.23bc19b9eac79b0956d913651841ede8
                           .group:00000000 wm4.stm32f4xx_hal_pwr.h.20.1905a0783a9c83adefd7df0c4b501e40
                           .group:00000000 wm4.stm32f4xx_hal_pwr_ex.h.20.9786dbd699c850465fa7b77273740267
                           .group:00000000 wm4.stm32f4xx_hal_pwr.h.338.debc0a4a62ba54688e63ab53dd99c4ea
                           .group:00000000 wm4.stm32f4xx_hal_uart.h.21.ba8e24dd05c77faac3f3d48472e636ba
                           .group:00000000 wm4.stm32f4xx_hal.h.71.02372bc31d47d29d3f67fbfe1429649e
ARM GAS  C:\Users\30514\AppData\Local\Temp\ccgU6XYJ.s 			page 10


                           .group:00000000 wm4.remote_control.h.15.dad157441a7369e14747acc4dfbe8b08
                           .group:00000000 wm4.newlib.h.7.a37ffbe9e5aff74303f4e60b1cc1c01b
                           .group:00000000 wm4.ieeefp.h.77.61a77db5804869b1dadd307a77cf78c9
                           .group:00000000 wm4.config.h.224.10ee1ad185d877c6e334e6581faab44d
                           .group:00000000 wm4._ansi.h.31.de524f58584151836e90d8620a16f8e8
                           .group:00000000 wm4.cdefs.h.49.70fc7af612f78ddcace70fdd90b5623b
                           .group:00000000 wm4._types.h.20.dd0d04dca3800a0d2a6129b87f3adbb2
                           .group:00000000 wm4.stddef.h.158.6f8e08a347b1cff664332fa350bfceb3
                           .group:00000000 wm4._types.h.127.3bdfe3ff8ea2d0985b03d9cbe93480e3
                           .group:00000000 wm4.reent.h.18.25503cdc8b7e55dd0d6ea7b3e5af7a03
                           .group:00000000 wm4.lock.h.2.1461d1fff82dffe8bfddc23307f6484f
                           .group:00000000 wm4.reent.h.78.6b87466b04591b1f1cb88c14fdf2ba9e
                           .group:00000000 wm4.math.h.13.47cfc34cae8a1153323939c4d32cf7c2
                           .group:00000000 wm4.dm_drv.h.7.4abb37ead5777bb8720ed305654a152b
                           .group:00000000 wm4.dm_ctrl.h.7.f5e8660fa386af2caaf9fd826f00c559

UNDEFINED SYMBOLS
Set_Joint_Ranges
Set_Stick_Channels
dm4310_motor_init
ctrl_enable
copysignf
remote_control_active
Map_To_JointSpace
dm4310_set
ctrl_send
motor
