ARM GAS  C:\Users\30514\AppData\Local\Temp\ccpbKoSJ.s 			page 1


   1              		.cpu cortex-m4
   2              		.arch armv7e-m
   3              		.fpu fpv4-sp-d16
   4              		.eabi_attribute 27, 1
   5              		.eabi_attribute 28, 1
   6              		.eabi_attribute 20, 1
   7              		.eabi_attribute 21, 1
   8              		.eabi_attribute 23, 3
   9              		.eabi_attribute 24, 1
  10              		.eabi_attribute 25, 1
  11              		.eabi_attribute 26, 1
  12              		.eabi_attribute 30, 6
  13              		.eabi_attribute 34, 1
  14              		.eabi_attribute 18, 4
  15              		.file	"coordinate_mapping.c"
  16              		.text
  17              	.Ltext0:
  18              		.cfi_sections	.debug_frame
  19              		.file 1 "Module/coordinate/coordinate_mapping.c"
  20              		.section	.data.stick_config,"aw"
  21              		.align	2
  24              	stick_config:
  25 0000 02       		.byte	2
  26 0001 01       		.byte	1
  27              		.section	.data.workspace_config,"aw"
  28              		.align	2
  31              	workspace_config:
  32 0000 920A063F 		.word	1057360530
  33 0004 00000000 		.word	0
  34 0008 0BBEF5BF 		.word	-1074414069
  35 000c 920A86BF 		.word	-1081734510
  36              		.section	.text.map_value,"ax",%progbits
  37              		.align	1
  38              		.syntax unified
  39              		.thumb
  40              		.thumb_func
  42              	map_value:
  43              	.LFB134:
   1:Module/coordinate/coordinate_mapping.c **** #include "coordinate_mapping.h"
   2:Module/coordinate/coordinate_mapping.c **** #include <math.h>
   3:Module/coordinate/coordinate_mapping.c **** #include "Remote_Control.h"
   4:Module/coordinate/coordinate_mapping.c **** 
   5:Module/coordinate/coordinate_mapping.c **** #ifndef M_PI
   6:Module/coordinate/coordinate_mapping.c **** #define M_PI 3.14159265358979323846f
   7:Module/coordinate/coordinate_mapping.c **** #endif
   8:Module/coordinate/coordinate_mapping.c **** 
   9:Module/coordinate/coordinate_mapping.c **** // 默认摇杆通道配置
  10:Module/coordinate/coordinate_mapping.c **** static StickChannelConfig stick_config =
  11:Module/coordinate/coordinate_mapping.c ****     {
  12:Module/coordinate/coordinate_mapping.c ****         .x_channel = 2, // 默认通道2控制X轴
  13:Module/coordinate/coordinate_mapping.c ****         .y_channel = 1  // 默认通道1控制Y轴
  14:Module/coordinate/coordinate_mapping.c **** };
  15:Module/coordinate/coordinate_mapping.c **** 
  16:Module/coordinate/coordinate_mapping.c **** // 默认工作空间配置
  17:Module/coordinate/coordinate_mapping.c **** static WorkspaceConfig workspace_config =
  18:Module/coordinate/coordinate_mapping.c ****     {
  19:Module/coordinate/coordinate_mapping.c ****         .min_theta1 = (30.0f / 180.0f) * M_PI,   // 默认电机1最小角度 -180°
ARM GAS  C:\Users\30514\AppData\Local\Temp\ccpbKoSJ.s 			page 2


  20:Module/coordinate/coordinate_mapping.c ****         .max_theta1 = 0.0f,                      // 默认电机1最大角度 180°
  21:Module/coordinate/coordinate_mapping.c ****         .min_theta2 = -(110.0f / 180.0f) * M_PI, // 默认电机2最小角度 -135°
  22:Module/coordinate/coordinate_mapping.c ****         .max_theta2 = -(60.0f / 180.0f) * M_PI   // 默认电机2最大角度 -45°
  23:Module/coordinate/coordinate_mapping.c **** };
  24:Module/coordinate/coordinate_mapping.c **** 
  25:Module/coordinate/coordinate_mapping.c **** // 辅助函数：将值从一个范围映射到另一个范围
  26:Module/coordinate/coordinate_mapping.c **** static float map_value(float input, float in_min, float in_max, float out_min, float out_max)
  27:Module/coordinate/coordinate_mapping.c **** {
  44              		.loc 1 27 1
  45              		.cfi_startproc
  46              		@ args = 0, pretend = 0, frame = 24
  47              		@ frame_needed = 1, uses_anonymous_args = 0
  48              		@ link register save eliminated.
  49 0000 80B4     		push	{r7}
  50              	.LCFI0:
  51              		.cfi_def_cfa_offset 4
  52              		.cfi_offset 7, -4
  53 0002 87B0     		sub	sp, sp, #28
  54              	.LCFI1:
  55              		.cfi_def_cfa_offset 32
  56 0004 00AF     		add	r7, sp, #0
  57              	.LCFI2:
  58              		.cfi_def_cfa_register 7
  59 0006 87ED050A 		vstr.32	s0, [r7, #20]
  60 000a C7ED040A 		vstr.32	s1, [r7, #16]
  61 000e 87ED031A 		vstr.32	s2, [r7, #12]
  62 0012 C7ED021A 		vstr.32	s3, [r7, #8]
  63 0016 87ED012A 		vstr.32	s4, [r7, #4]
  28:Module/coordinate/coordinate_mapping.c ****     // 处理除零错误
  29:Module/coordinate/coordinate_mapping.c ****     if (fabsf(in_max - in_min) < 0.0001f)
  64              		.loc 1 29 22
  65 001a 97ED037A 		vldr.32	s14, [r7, #12]
  66 001e D7ED047A 		vldr.32	s15, [r7, #16]
  67 0022 77EE677A 		vsub.f32	s15, s14, s15
  68              		.loc 1 29 9
  69 0026 F0EEE77A 		vabs.f32	s15, s15
  70              		.loc 1 29 8
  71 002a 9FED197A 		vldr.32	s14, .L7
  72 002e F4EEC77A 		vcmpe.f32	s15, s14
  73 0032 F1EE10FA 		vmrs	APSR_nzcv, FPSCR
  74 0036 0AD5     		bpl	.L6
  30:Module/coordinate/coordinate_mapping.c ****     {
  31:Module/coordinate/coordinate_mapping.c ****         return (out_min + out_max) * 0.5f; // 返回中间值
  75              		.loc 1 31 25
  76 0038 97ED027A 		vldr.32	s14, [r7, #8]
  77 003c D7ED017A 		vldr.32	s15, [r7, #4]
  78 0040 77EE277A 		vadd.f32	s15, s14, s15
  79              		.loc 1 31 36
  80 0044 B6EE007A 		vmov.f32	s14, #5.0e-1
  81 0048 67EE877A 		vmul.f32	s15, s15, s14
  82 004c 19E0     		b	.L4
  83              	.L6:
  32:Module/coordinate/coordinate_mapping.c ****     }
  33:Module/coordinate/coordinate_mapping.c **** 
  34:Module/coordinate/coordinate_mapping.c ****     // 线性映射
  35:Module/coordinate/coordinate_mapping.c ****     return (input - in_min) * (out_max - out_min) / (in_max - in_min) + out_min;
  84              		.loc 1 35 19
ARM GAS  C:\Users\30514\AppData\Local\Temp\ccpbKoSJ.s 			page 3


  85 004e 97ED057A 		vldr.32	s14, [r7, #20]
  86 0052 D7ED047A 		vldr.32	s15, [r7, #16]
  87 0056 37EE677A 		vsub.f32	s14, s14, s15
  88              		.loc 1 35 40
  89 005a D7ED016A 		vldr.32	s13, [r7, #4]
  90 005e D7ED027A 		vldr.32	s15, [r7, #8]
  91 0062 76EEE77A 		vsub.f32	s15, s13, s15
  92              		.loc 1 35 29
  93 0066 67EE276A 		vmul.f32	s13, s14, s15
  94              		.loc 1 35 61
  95 006a 97ED037A 		vldr.32	s14, [r7, #12]
  96 006e D7ED047A 		vldr.32	s15, [r7, #16]
  97 0072 77EE677A 		vsub.f32	s15, s14, s15
  98              		.loc 1 35 51
  99 0076 86EEA77A 		vdiv.f32	s14, s13, s15
 100              		.loc 1 35 71
 101 007a D7ED027A 		vldr.32	s15, [r7, #8]
 102 007e 77EE277A 		vadd.f32	s15, s14, s15
 103              	.L4:
  36:Module/coordinate/coordinate_mapping.c **** }
 104              		.loc 1 36 1
 105 0082 B0EE670A 		vmov.f32	s0, s15
 106 0086 1C37     		adds	r7, r7, #28
 107              	.LCFI3:
 108              		.cfi_def_cfa_offset 4
 109 0088 BD46     		mov	sp, r7
 110              	.LCFI4:
 111              		.cfi_def_cfa_register 13
 112              		@ sp needed
 113 008a 5DF8047B 		ldr	r7, [sp], #4
 114              	.LCFI5:
 115              		.cfi_restore 7
 116              		.cfi_def_cfa_offset 0
 117 008e 7047     		bx	lr
 118              	.L8:
 119              		.align	2
 120              	.L7:
 121 0090 17B7D138 		.word	953267991
 122              		.cfi_endproc
 123              	.LFE134:
 125              		.section	.text.Set_Stick_Channels,"ax",%progbits
 126              		.align	1
 127              		.global	Set_Stick_Channels
 128              		.syntax unified
 129              		.thumb
 130              		.thumb_func
 132              	Set_Stick_Channels:
 133              	.LFB135:
  37:Module/coordinate/coordinate_mapping.c **** 
  38:Module/coordinate/coordinate_mapping.c **** // 用于配置映射到x,y的遥控器通道
  39:Module/coordinate/coordinate_mapping.c **** void Set_Stick_Channels(uint8_t x_ch, uint8_t y_ch)
  40:Module/coordinate/coordinate_mapping.c **** {
 134              		.loc 1 40 1
 135              		.cfi_startproc
 136              		@ args = 0, pretend = 0, frame = 8
 137              		@ frame_needed = 1, uses_anonymous_args = 0
 138              		@ link register save eliminated.
ARM GAS  C:\Users\30514\AppData\Local\Temp\ccpbKoSJ.s 			page 4


 139 0000 80B4     		push	{r7}
 140              	.LCFI6:
 141              		.cfi_def_cfa_offset 4
 142              		.cfi_offset 7, -4
 143 0002 83B0     		sub	sp, sp, #12
 144              	.LCFI7:
 145              		.cfi_def_cfa_offset 16
 146 0004 00AF     		add	r7, sp, #0
 147              	.LCFI8:
 148              		.cfi_def_cfa_register 7
 149 0006 0346     		mov	r3, r0
 150 0008 0A46     		mov	r2, r1
 151 000a FB71     		strb	r3, [r7, #7]
 152 000c 1346     		mov	r3, r2
 153 000e BB71     		strb	r3, [r7, #6]
  41:Module/coordinate/coordinate_mapping.c ****     stick_config.x_channel = x_ch;
 154              		.loc 1 41 28
 155 0010 054A     		ldr	r2, .L10
 156 0012 FB79     		ldrb	r3, [r7, #7]
 157 0014 1370     		strb	r3, [r2]
  42:Module/coordinate/coordinate_mapping.c ****     stick_config.y_channel = y_ch;
 158              		.loc 1 42 28
 159 0016 044A     		ldr	r2, .L10
 160 0018 BB79     		ldrb	r3, [r7, #6]
 161 001a 5370     		strb	r3, [r2, #1]
  43:Module/coordinate/coordinate_mapping.c **** }
 162              		.loc 1 43 1
 163 001c 00BF     		nop
 164 001e 0C37     		adds	r7, r7, #12
 165              	.LCFI9:
 166              		.cfi_def_cfa_offset 4
 167 0020 BD46     		mov	sp, r7
 168              	.LCFI10:
 169              		.cfi_def_cfa_register 13
 170              		@ sp needed
 171 0022 5DF8047B 		ldr	r7, [sp], #4
 172              	.LCFI11:
 173              		.cfi_restore 7
 174              		.cfi_def_cfa_offset 0
 175 0026 7047     		bx	lr
 176              	.L11:
 177              		.align	2
 178              	.L10:
 179 0028 00000000 		.word	stick_config
 180              		.cfi_endproc
 181              	.LFE135:
 183              		.section	.text.Set_Joint_Ranges,"ax",%progbits
 184              		.align	1
 185              		.global	Set_Joint_Ranges
 186              		.syntax unified
 187              		.thumb
 188              		.thumb_func
 190              	Set_Joint_Ranges:
 191              	.LFB136:
  44:Module/coordinate/coordinate_mapping.c **** 
  45:Module/coordinate/coordinate_mapping.c **** // 设置关节角度范围
  46:Module/coordinate/coordinate_mapping.c **** void Set_Joint_Ranges(float min_t1, float max_t1, float min_t2, float max_t2)
ARM GAS  C:\Users\30514\AppData\Local\Temp\ccpbKoSJ.s 			page 5


  47:Module/coordinate/coordinate_mapping.c **** {
 192              		.loc 1 47 1
 193              		.cfi_startproc
 194              		@ args = 0, pretend = 0, frame = 16
 195              		@ frame_needed = 1, uses_anonymous_args = 0
 196              		@ link register save eliminated.
 197 0000 80B4     		push	{r7}
 198              	.LCFI12:
 199              		.cfi_def_cfa_offset 4
 200              		.cfi_offset 7, -4
 201 0002 85B0     		sub	sp, sp, #20
 202              	.LCFI13:
 203              		.cfi_def_cfa_offset 24
 204 0004 00AF     		add	r7, sp, #0
 205              	.LCFI14:
 206              		.cfi_def_cfa_register 7
 207 0006 87ED030A 		vstr.32	s0, [r7, #12]
 208 000a C7ED020A 		vstr.32	s1, [r7, #8]
 209 000e 87ED011A 		vstr.32	s2, [r7, #4]
 210 0012 C7ED001A 		vstr.32	s3, [r7]
  48:Module/coordinate/coordinate_mapping.c ****     workspace_config.min_theta1 = min_t1;
 211              		.loc 1 48 33
 212 0016 094A     		ldr	r2, .L13
 213 0018 FB68     		ldr	r3, [r7, #12]	@ float
 214 001a 1360     		str	r3, [r2]	@ float
  49:Module/coordinate/coordinate_mapping.c ****     workspace_config.max_theta1 = max_t1;
 215              		.loc 1 49 33
 216 001c 074A     		ldr	r2, .L13
 217 001e BB68     		ldr	r3, [r7, #8]	@ float
 218 0020 5360     		str	r3, [r2, #4]	@ float
  50:Module/coordinate/coordinate_mapping.c ****     workspace_config.min_theta2 = min_t2;
 219              		.loc 1 50 33
 220 0022 064A     		ldr	r2, .L13
 221 0024 7B68     		ldr	r3, [r7, #4]	@ float
 222 0026 9360     		str	r3, [r2, #8]	@ float
  51:Module/coordinate/coordinate_mapping.c ****     workspace_config.max_theta2 = max_t2;
 223              		.loc 1 51 33
 224 0028 044A     		ldr	r2, .L13
 225 002a 3B68     		ldr	r3, [r7]	@ float
 226 002c D360     		str	r3, [r2, #12]	@ float
  52:Module/coordinate/coordinate_mapping.c **** }
 227              		.loc 1 52 1
 228 002e 00BF     		nop
 229 0030 1437     		adds	r7, r7, #20
 230              	.LCFI15:
 231              		.cfi_def_cfa_offset 4
 232 0032 BD46     		mov	sp, r7
 233              	.LCFI16:
 234              		.cfi_def_cfa_register 13
 235              		@ sp needed
 236 0034 5DF8047B 		ldr	r7, [sp], #4
 237              	.LCFI17:
 238              		.cfi_restore 7
 239              		.cfi_def_cfa_offset 0
 240 0038 7047     		bx	lr
 241              	.L14:
 242 003a 00BF     		.align	2
ARM GAS  C:\Users\30514\AppData\Local\Temp\ccpbKoSJ.s 			page 6


 243              	.L13:
 244 003c 00000000 		.word	workspace_config
 245              		.cfi_endproc
 246              	.LFE136:
 248              		.section	.text.Map_To_JointSpace,"ax",%progbits
 249              		.align	1
 250              		.global	Map_To_JointSpace
 251              		.syntax unified
 252              		.thumb
 253              		.thumb_func
 255              	Map_To_JointSpace:
 256              	.LFB137:
  53:Module/coordinate/coordinate_mapping.c **** 
  54:Module/coordinate/coordinate_mapping.c **** // 将遥控器通道值直接映射到关节角度
  55:Module/coordinate/coordinate_mapping.c **** JointAngles Map_To_JointSpace(void)
  56:Module/coordinate/coordinate_mapping.c **** {
 257              		.loc 1 56 1
 258              		.cfi_startproc
 259              		@ args = 0, pretend = 0, frame = 40
 260              		@ frame_needed = 1, uses_anonymous_args = 0
 261 0000 90B5     		push	{r4, r7, lr}
 262              	.LCFI18:
 263              		.cfi_def_cfa_offset 12
 264              		.cfi_offset 4, -12
 265              		.cfi_offset 7, -8
 266              		.cfi_offset 14, -4
 267 0002 8BB0     		sub	sp, sp, #44
 268              	.LCFI19:
 269              		.cfi_def_cfa_offset 56
 270 0004 00AF     		add	r7, sp, #0
 271              	.LCFI20:
 272              		.cfi_def_cfa_register 7
 273 0006 7860     		str	r0, [r7, #4]
  57:Module/coordinate/coordinate_mapping.c ****     // 默认返回值
  58:Module/coordinate/coordinate_mapping.c ****     JointAngles angles = {
 274              		.loc 1 58 17
 275 0008 4FF00003 		mov	r3, #0
 276 000c FB60     		str	r3, [r7, #12]	@ float
 277 000e 6E4B     		ldr	r3, .L22
 278 0010 3B61     		str	r3, [r7, #16]	@ float
 279 0012 0023     		movs	r3, #0
 280 0014 3B75     		strb	r3, [r7, #20]
  59:Module/coordinate/coordinate_mapping.c ****         .theta1 = 0.0f,
  60:Module/coordinate/coordinate_mapping.c ****         .theta2 = -M_PI, // 默认-90°的安全位置
  61:Module/coordinate/coordinate_mapping.c ****         .valid = false};
  62:Module/coordinate/coordinate_mapping.c **** 
  63:Module/coordinate/coordinate_mapping.c ****     // 获取摇杆原始值
  64:Module/coordinate/coordinate_mapping.c ****     int16_t ch_x = get_channel_raw_value(stick_config.x_channel);
 281              		.loc 1 64 20
 282 0016 6D4B     		ldr	r3, .L22+4
 283 0018 1B78     		ldrb	r3, [r3]	@ zero_extendqisi2
 284 001a 1846     		mov	r0, r3
 285 001c FFF7FEFF 		bl	get_channel_raw_value
 286 0020 0346     		mov	r3, r0
 287 0022 FB84     		strh	r3, [r7, #38]	@ movhi
  65:Module/coordinate/coordinate_mapping.c ****     int16_t ch_y = get_channel_raw_value(stick_config.y_channel);
 288              		.loc 1 65 20
ARM GAS  C:\Users\30514\AppData\Local\Temp\ccpbKoSJ.s 			page 7


 289 0024 694B     		ldr	r3, .L22+4
 290 0026 5B78     		ldrb	r3, [r3, #1]	@ zero_extendqisi2
 291 0028 1846     		mov	r0, r3
 292 002a FFF7FEFF 		bl	get_channel_raw_value
 293 002e 0346     		mov	r3, r0
 294 0030 BB84     		strh	r3, [r7, #36]	@ movhi
  66:Module/coordinate/coordinate_mapping.c **** 
  67:Module/coordinate/coordinate_mapping.c **** // 确定原始值范围（根据遥控器类型）
  68:Module/coordinate/coordinate_mapping.c **** #if defined(RC_PROTOCOL_DJI)
  69:Module/coordinate/coordinate_mapping.c ****     const int16_t RAW_MIN = -660;
  70:Module/coordinate/coordinate_mapping.c ****     const int16_t RAW_MAX = 660;
  71:Module/coordinate/coordinate_mapping.c **** #elif defined(RC_PROTOCOL_TDF)
  72:Module/coordinate/coordinate_mapping.c ****     const int16_t RAW_MIN = -1024;
 295              		.loc 1 72 19
 296 0032 4FF47C43 		mov	r3, #64512
 297 0036 7B84     		strh	r3, [r7, #34]	@ movhi
  73:Module/coordinate/coordinate_mapping.c ****     const int16_t RAW_MAX = 1024;
 298              		.loc 1 73 19
 299 0038 4FF48063 		mov	r3, #1024
 300 003c 3B84     		strh	r3, [r7, #32]	@ movhi
  74:Module/coordinate/coordinate_mapping.c **** #else
  75:Module/coordinate/coordinate_mapping.c ****     const int16_t RAW_MIN = -1000;
  76:Module/coordinate/coordinate_mapping.c ****     const int16_t RAW_MAX = 1000;
  77:Module/coordinate/coordinate_mapping.c **** #endif
  78:Module/coordinate/coordinate_mapping.c **** 
  79:Module/coordinate/coordinate_mapping.c ****     // 应用死区处理（消除摇杆中心的微小偏移）
  80:Module/coordinate/coordinate_mapping.c ****     const int16_t deadzone = 50; // 原始值死区
 301              		.loc 1 80 19
 302 003e 3223     		movs	r3, #50
 303 0040 FB83     		strh	r3, [r7, #30]	@ movhi
 304              	.LBB2:
  81:Module/coordinate/coordinate_mapping.c ****     if (abs(ch_x) < deadzone)
 305              		.loc 1 81 9
 306 0042 B7F92630 		ldrsh	r3, [r7, #38]
 307 0046 002B     		cmp	r3, #0
 308 0048 B8BF     		it	lt
 309 004a 5B42     		rsblt	r3, r3, #0
 310 004c 9BB2     		uxth	r3, r3
 311 004e 1A46     		mov	r2, r3
 312              		.loc 1 81 19
 313 0050 B7F91E30 		ldrsh	r3, [r7, #30]
 314              		.loc 1 81 8
 315 0054 9A42     		cmp	r2, r3
 316 0056 01DA     		bge	.L16
  82:Module/coordinate/coordinate_mapping.c ****         ch_x = 0;
 317              		.loc 1 82 14
 318 0058 0023     		movs	r3, #0
 319 005a FB84     		strh	r3, [r7, #38]	@ movhi
 320              	.L16:
 321              	.LBE2:
 322              	.LBB3:
  83:Module/coordinate/coordinate_mapping.c ****     if (abs(ch_y) < deadzone)
 323              		.loc 1 83 9
 324 005c B7F92430 		ldrsh	r3, [r7, #36]
 325 0060 002B     		cmp	r3, #0
 326 0062 B8BF     		it	lt
 327 0064 5B42     		rsblt	r3, r3, #0
ARM GAS  C:\Users\30514\AppData\Local\Temp\ccpbKoSJ.s 			page 8


 328 0066 9BB2     		uxth	r3, r3
 329 0068 1A46     		mov	r2, r3
 330              		.loc 1 83 19
 331 006a B7F91E30 		ldrsh	r3, [r7, #30]
 332              		.loc 1 83 8
 333 006e 9A42     		cmp	r2, r3
 334 0070 01DA     		bge	.L17
  84:Module/coordinate/coordinate_mapping.c ****         ch_y = 0;
 335              		.loc 1 84 14
 336 0072 0023     		movs	r3, #0
 337 0074 BB84     		strh	r3, [r7, #36]	@ movhi
 338              	.L17:
 339              	.LBE3:
  85:Module/coordinate/coordinate_mapping.c **** 
  86:Module/coordinate/coordinate_mapping.c ****     // 映射到电机1的角度范围（θ₁）
  87:Module/coordinate/coordinate_mapping.c ****     angles.theta1 = map_value(
 340              		.loc 1 87 21
 341 0076 B7F92630 		ldrsh	r3, [r7, #38]
 342 007a 07EE903A 		vmov	s15, r3	@ int
 343 007e F8EEE77A 		vcvt.f32.s32	s15, s15
 344 0082 B7F92230 		ldrsh	r3, [r7, #34]
 345 0086 07EE103A 		vmov	s14, r3	@ int
 346 008a B8EEC77A 		vcvt.f32.s32	s14, s14
 347 008e B7F92030 		ldrsh	r3, [r7, #32]
 348 0092 06EE903A 		vmov	s13, r3	@ int
 349 0096 F8EEE66A 		vcvt.f32.s32	s13, s13
 350 009a 4D4B     		ldr	r3, .L22+8
 351 009c 93ED006A 		vldr.32	s12, [r3]
 352 00a0 4B4B     		ldr	r3, .L22+8
 353 00a2 D3ED015A 		vldr.32	s11, [r3, #4]
 354 00a6 B0EE652A 		vmov.f32	s4, s11
 355 00aa F0EE461A 		vmov.f32	s3, s12
 356 00ae B0EE661A 		vmov.f32	s2, s13
 357 00b2 F0EE470A 		vmov.f32	s1, s14
 358 00b6 B0EE670A 		vmov.f32	s0, s15
 359 00ba FFF7FEFF 		bl	map_value
 360 00be F0EE407A 		vmov.f32	s15, s0
 361              		.loc 1 87 19 discriminator 1
 362 00c2 C7ED037A 		vstr.32	s15, [r7, #12]
  88:Module/coordinate/coordinate_mapping.c ****         (float)ch_x,
  89:Module/coordinate/coordinate_mapping.c ****         (float)RAW_MIN,
  90:Module/coordinate/coordinate_mapping.c ****         (float)RAW_MAX,
  91:Module/coordinate/coordinate_mapping.c ****         workspace_config.min_theta1,
  92:Module/coordinate/coordinate_mapping.c ****         workspace_config.max_theta1);
  93:Module/coordinate/coordinate_mapping.c **** 
  94:Module/coordinate/coordinate_mapping.c ****     // 映射到电机2的角度范围（θ₂）
  95:Module/coordinate/coordinate_mapping.c ****     angles.theta2 = map_value(
 363              		.loc 1 95 21
 364 00c6 B7F92430 		ldrsh	r3, [r7, #36]
 365 00ca 07EE903A 		vmov	s15, r3	@ int
 366 00ce F8EEE77A 		vcvt.f32.s32	s15, s15
 367 00d2 B7F92230 		ldrsh	r3, [r7, #34]
 368 00d6 07EE103A 		vmov	s14, r3	@ int
 369 00da B8EEC77A 		vcvt.f32.s32	s14, s14
 370 00de B7F92030 		ldrsh	r3, [r7, #32]
 371 00e2 06EE903A 		vmov	s13, r3	@ int
 372 00e6 F8EEE66A 		vcvt.f32.s32	s13, s13
ARM GAS  C:\Users\30514\AppData\Local\Temp\ccpbKoSJ.s 			page 9


 373 00ea 394B     		ldr	r3, .L22+8
 374 00ec 93ED026A 		vldr.32	s12, [r3, #8]
 375 00f0 374B     		ldr	r3, .L22+8
 376 00f2 D3ED035A 		vldr.32	s11, [r3, #12]
 377 00f6 B0EE652A 		vmov.f32	s4, s11
 378 00fa F0EE461A 		vmov.f32	s3, s12
 379 00fe B0EE661A 		vmov.f32	s2, s13
 380 0102 F0EE470A 		vmov.f32	s1, s14
 381 0106 B0EE670A 		vmov.f32	s0, s15
 382 010a FFF7FEFF 		bl	map_value
 383 010e F0EE407A 		vmov.f32	s15, s0
 384              		.loc 1 95 19 discriminator 1
 385 0112 C7ED047A 		vstr.32	s15, [r7, #16]
  96:Module/coordinate/coordinate_mapping.c ****         (float)ch_y,
  97:Module/coordinate/coordinate_mapping.c ****         (float)RAW_MIN,
  98:Module/coordinate/coordinate_mapping.c ****         (float)RAW_MAX,
  99:Module/coordinate/coordinate_mapping.c ****         workspace_config.min_theta2,
 100:Module/coordinate/coordinate_mapping.c ****         workspace_config.max_theta2);
 101:Module/coordinate/coordinate_mapping.c **** 
 102:Module/coordinate/coordinate_mapping.c ****     // 应用安全边界（确保角度在限位范围内）
 103:Module/coordinate/coordinate_mapping.c ****     angles.theta1 = fmaxf(fminf(angles.theta1, workspace_config.max_theta1), workspace_config.min_t
 386              		.loc 1 103 21
 387 0116 D7ED037A 		vldr.32	s15, [r7, #12]
 388 011a 2D4B     		ldr	r3, .L22+8
 389 011c 93ED017A 		vldr.32	s14, [r3, #4]
 390 0120 F0EE470A 		vmov.f32	s1, s14
 391 0124 B0EE670A 		vmov.f32	s0, s15
 392 0128 FFF7FEFF 		bl	fminf
 393 012c B0EE407A 		vmov.f32	s14, s0
 394              		.loc 1 103 21 is_stmt 0 discriminator 1
 395 0130 274B     		ldr	r3, .L22+8
 396 0132 D3ED007A 		vldr.32	s15, [r3]
 397 0136 F0EE670A 		vmov.f32	s1, s15
 398 013a B0EE470A 		vmov.f32	s0, s14
 399 013e FFF7FEFF 		bl	fmaxf
 400 0142 F0EE407A 		vmov.f32	s15, s0
 401              		.loc 1 103 19 is_stmt 1 discriminator 2
 402 0146 C7ED037A 		vstr.32	s15, [r7, #12]
 104:Module/coordinate/coordinate_mapping.c ****     angles.theta2 = fmaxf(fminf(angles.theta2, workspace_config.max_theta2), workspace_config.min_t
 403              		.loc 1 104 21
 404 014a D7ED047A 		vldr.32	s15, [r7, #16]
 405 014e 204B     		ldr	r3, .L22+8
 406 0150 93ED037A 		vldr.32	s14, [r3, #12]
 407 0154 F0EE470A 		vmov.f32	s1, s14
 408 0158 B0EE670A 		vmov.f32	s0, s15
 409 015c FFF7FEFF 		bl	fminf
 410 0160 B0EE407A 		vmov.f32	s14, s0
 411              		.loc 1 104 21 is_stmt 0 discriminator 1
 412 0164 1A4B     		ldr	r3, .L22+8
 413 0166 D3ED027A 		vldr.32	s15, [r3, #8]
 414 016a F0EE670A 		vmov.f32	s1, s15
 415 016e B0EE470A 		vmov.f32	s0, s14
 416 0172 FFF7FEFF 		bl	fmaxf
 417 0176 F0EE407A 		vmov.f32	s15, s0
 418              		.loc 1 104 19 is_stmt 1 discriminator 2
 419 017a C7ED047A 		vstr.32	s15, [r7, #16]
 105:Module/coordinate/coordinate_mapping.c **** 
ARM GAS  C:\Users\30514\AppData\Local\Temp\ccpbKoSJ.s 			page 10


 106:Module/coordinate/coordinate_mapping.c ****     // 验证θ₁ > θ₂约束（使用容差）
 107:Module/coordinate/coordinate_mapping.c ****     const float angle_tolerance = 0.001f;
 420              		.loc 1 107 17
 421 017e 154B     		ldr	r3, .L22+12
 422 0180 BB61     		str	r3, [r7, #24]	@ float
 108:Module/coordinate/coordinate_mapping.c ****     if (angles.theta1 < angles.theta2 - angle_tolerance)
 423              		.loc 1 108 15
 424 0182 97ED037A 		vldr.32	s14, [r7, #12]
 425              		.loc 1 108 31
 426 0186 D7ED046A 		vldr.32	s13, [r7, #16]
 427              		.loc 1 108 39
 428 018a D7ED067A 		vldr.32	s15, [r7, #24]
 429 018e 76EEE77A 		vsub.f32	s15, s13, s15
 430              		.loc 1 108 8
 431 0192 B4EEE77A 		vcmpe.f32	s14, s15
 432 0196 F1EE10FA 		vmrs	APSR_nzcv, FPSCR
 433 019a 07D5     		bpl	.L18
 109:Module/coordinate/coordinate_mapping.c ****     {
 110:Module/coordinate/coordinate_mapping.c ****         // 违反约束时调整为安全位置
 111:Module/coordinate/coordinate_mapping.c ****         angles.theta1 = angles.theta2 - angle_tolerance;
 434              		.loc 1 111 31
 435 019c 97ED047A 		vldr.32	s14, [r7, #16]
 436              		.loc 1 111 39
 437 01a0 D7ED067A 		vldr.32	s15, [r7, #24]
 438 01a4 77EE677A 		vsub.f32	s15, s14, s15
 439              		.loc 1 111 23
 440 01a8 C7ED037A 		vstr.32	s15, [r7, #12]
 441              	.L18:
 112:Module/coordinate/coordinate_mapping.c ****     }
 113:Module/coordinate/coordinate_mapping.c **** 
 114:Module/coordinate/coordinate_mapping.c ****     angles.valid = true;
 442              		.loc 1 114 18
 443 01ac 0123     		movs	r3, #1
 444 01ae 3B75     		strb	r3, [r7, #20]
 115:Module/coordinate/coordinate_mapping.c ****     return angles;
 445              		.loc 1 115 12
 446 01b0 7B68     		ldr	r3, [r7, #4]
 447 01b2 1C46     		mov	r4, r3
 448 01b4 07F10C03 		add	r3, r7, #12
 449 01b8 93E80700 		ldm	r3, {r0, r1, r2}
 450 01bc 84E80700 		stm	r4, {r0, r1, r2}
 116:Module/coordinate/coordinate_mapping.c **** }...
 451              		.loc 1 116 1
 452 01c0 7868     		ldr	r0, [r7, #4]
 453 01c2 2C37     		adds	r7, r7, #44
 454              	.LCFI21:
 455              		.cfi_def_cfa_offset 12
 456 01c4 BD46     		mov	sp, r7
 457              	.LCFI22:
 458              		.cfi_def_cfa_register 13
 459              		@ sp needed
 460 01c6 90BD     		pop	{r4, r7, pc}
 461              	.L23:
 462              		.align	2
 463              	.L22:
 464 01c8 DB0F49C0 		.word	-1068953637
 465 01cc 00000000 		.word	stick_config
ARM GAS  C:\Users\30514\AppData\Local\Temp\ccpbKoSJ.s 			page 11


 466 01d0 00000000 		.word	workspace_config
 467 01d4 6F12833A 		.word	981668463
 468              		.cfi_endproc
 469              	.LFE137:
 471              		.text
 472              	.Letext0:
 473              		.file 2 "D:/enviroment/msys2/mingw64/arm-none-eabi/include/machine/_default_types.h"
 474              		.file 3 "D:/enviroment/msys2/mingw64/arm-none-eabi/include/sys/_stdint.h"
 475              		.file 4 "Module/coordinate/coordinate_mapping.h"
 476              		.file 5 "D:/enviroment/msys2/mingw64/arm-none-eabi/include/math.h"
 477              		.file 6 "Module/remote_control/remote_control.h"
 478              		.file 7 "<built-in>"
ARM GAS  C:\Users\30514\AppData\Local\Temp\ccpbKoSJ.s 			page 12


DEFINED SYMBOLS
                            *ABS*:00000000 coordinate_mapping.c
C:\Users\30514\AppData\Local\Temp\ccpbKoSJ.s:21     .data.stick_config:00000000 $d
C:\Users\30514\AppData\Local\Temp\ccpbKoSJ.s:24     .data.stick_config:00000000 stick_config
C:\Users\30514\AppData\Local\Temp\ccpbKoSJ.s:28     .data.workspace_config:00000000 $d
C:\Users\30514\AppData\Local\Temp\ccpbKoSJ.s:31     .data.workspace_config:00000000 workspace_config
C:\Users\30514\AppData\Local\Temp\ccpbKoSJ.s:37     .text.map_value:00000000 $t
C:\Users\30514\AppData\Local\Temp\ccpbKoSJ.s:42     .text.map_value:00000000 map_value
C:\Users\30514\AppData\Local\Temp\ccpbKoSJ.s:121    .text.map_value:00000090 $d
C:\Users\30514\AppData\Local\Temp\ccpbKoSJ.s:126    .text.Set_Stick_Channels:00000000 $t
C:\Users\30514\AppData\Local\Temp\ccpbKoSJ.s:132    .text.Set_Stick_Channels:00000000 Set_Stick_Channels
C:\Users\30514\AppData\Local\Temp\ccpbKoSJ.s:179    .text.Set_Stick_Channels:00000028 $d
C:\Users\30514\AppData\Local\Temp\ccpbKoSJ.s:184    .text.Set_Joint_Ranges:00000000 $t
C:\Users\30514\AppData\Local\Temp\ccpbKoSJ.s:190    .text.Set_Joint_Ranges:00000000 Set_Joint_Ranges
C:\Users\30514\AppData\Local\Temp\ccpbKoSJ.s:244    .text.Set_Joint_Ranges:0000003c $d
C:\Users\30514\AppData\Local\Temp\ccpbKoSJ.s:249    .text.Map_To_JointSpace:00000000 $t
C:\Users\30514\AppData\Local\Temp\ccpbKoSJ.s:255    .text.Map_To_JointSpace:00000000 Map_To_JointSpace
C:\Users\30514\AppData\Local\Temp\ccpbKoSJ.s:464    .text.Map_To_JointSpace:000001c8 $d
                           .group:00000000 wm4.0.3e68c699c40fadf7e6c1e499de837233
                           .group:00000000 wm4._newlib_version.h.4.0eb654b64686e2bd29646258853f6c22
                           .group:00000000 wm4.features.h.33.d554620bb17bd3b714c3fb5c268772bc
                           .group:00000000 wm4._default_types.h.15.247e5cd201eca3442cbf5404108c4935
                           .group:00000000 wm4._intsup.h.10.48bafbb683905c4daa4565a85aeeb264
                           .group:00000000 wm4._stdint.h.10.c24fa3af3bc1706662bb5593a907e841
                           .group:00000000 wm4.stdint.h.23.d53047a68f4a85177f80b422d52785ed
                           .group:00000000 wm4.stdbool.h.29.c08aa3eec75cf5b9b5003883f43253f0
                           .group:00000000 wm4.remote_control.h.2.d5ede23e17e0664e5394033a072c4472
                           .group:00000000 wm4.stm32f4xx_hal_conf.h.25.a9a6e27d8b41172b5af7d7631d763ee0
                           .group:00000000 wm4.stm32f4xx.h.38.63e3ea23bd63a94457417730025259b6
                           .group:00000000 wm4.stm32f446xx.h.34.dd43cebd7192f96bce7a5ff975201274
                           .group:00000000 wm4.cmsis_version.h.32.0ac195c83bb4537824e6ad1c47474b79
                           .group:00000000 wm4.core_cm4.h.66.e4ff136c4a17abc46741866f64f8e729
                           .group:00000000 wm4.cmsis_gcc.h.26.498d0ad17a45fc9ef20fdc01caf02259
                           .group:00000000 wm4.core_cm4.h.174.62be9b4588d49bed18171771001331df
                           .group:00000000 wm4.mpu_armv7.h.32.83326921a797fa9d6f70449916b4b839
                           .group:00000000 wm4.stm32f446xx.h.917.13927c85cbbf4787955bc4173c54fa12
                           .group:00000000 wm4.stm32f4xx.h.195.a4b8bf80f37cc96981498656ffe5f588
                           .group:00000000 wm4.stm32_hal_legacy.h.22.8b7d303dc46a0b7ac6d3edf19ce2608d
                           .group:00000000 wm4.stddef.h.39.0dc9006b34572d4d9cae4c8b422c4971
                           .group:00000000 wm4.stm32f4xx_hal_def.h.58.3cb484e92e5ccf2e55312a4714e27917
                           .group:00000000 wm4.stm32f4xx_hal_rcc_ex.h.20.9b6e314009d4800dd71c0ec1c264a1ea
                           .group:00000000 wm4.stm32f4xx_hal_rcc.h.106.0887cf5d985ae88e345b0aed0ceb4729
                           .group:00000000 wm4.stm32f4xx_hal_gpio.h.21.22da6a14b6049d6ac156577be74df1d7
                           .group:00000000 wm4.stm32f4xx_hal_gpio_ex.h.21.33ea7ea24fd170b1d3dce3d23330c9d3
                           .group:00000000 wm4.stm32f4xx_hal_gpio.h.254.d7e07832f748fe8bcb575db0b8373592
                           .group:00000000 wm4.stm32f4xx_hal_exti.h.21.4fc7f37c3cc97fb821b368ede79414b6
                           .group:00000000 wm4.stm32f4xx_hal_dma.h.21.8e4b1421c914345c23be719e5e528779
                           .group:00000000 wm4.stm32f4xx_hal_dma.h.720.ac2d7eef74792e4026acc4d2923c5da4
                           .group:00000000 wm4.stm32f4xx_hal_cortex.h.20.03673e4f79386680bf73ba399c19306b
                           .group:00000000 wm4.stm32f4xx_hal_can.h.21.4b16c8dedf31ba328482231f811a7e65
                           .group:00000000 wm4.stm32f4xx_hal_flash.h.20.2f1e0d1b7010b3a81a7980aaf712e7e5
                           .group:00000000 wm4.stm32f4xx_hal_flash_ex.h.20.77cb3e5c0f1e426426a4cbc884a1eed8
                           .group:00000000 wm4.stm32f4xx_hal_flash.h.361.23bc19b9eac79b0956d913651841ede8
                           .group:00000000 wm4.stm32f4xx_hal_pwr.h.20.1905a0783a9c83adefd7df0c4b501e40
                           .group:00000000 wm4.stm32f4xx_hal_pwr_ex.h.20.9786dbd699c850465fa7b77273740267
                           .group:00000000 wm4.stm32f4xx_hal_pwr.h.338.debc0a4a62ba54688e63ab53dd99c4ea
                           .group:00000000 wm4.stm32f4xx_hal_uart.h.21.ba8e24dd05c77faac3f3d48472e636ba
ARM GAS  C:\Users\30514\AppData\Local\Temp\ccpbKoSJ.s 			page 13


                           .group:00000000 wm4.stm32f4xx_hal.h.71.02372bc31d47d29d3f67fbfe1429649e
                           .group:00000000 wm4.remote_control.h.15.dad157441a7369e14747acc4dfbe8b08
                           .group:00000000 wm4.newlib.h.7.a37ffbe9e5aff74303f4e60b1cc1c01b
                           .group:00000000 wm4.ieeefp.h.77.61a77db5804869b1dadd307a77cf78c9
                           .group:00000000 wm4.config.h.224.10ee1ad185d877c6e334e6581faab44d
                           .group:00000000 wm4._ansi.h.31.de524f58584151836e90d8620a16f8e8
                           .group:00000000 wm4.cdefs.h.49.70fc7af612f78ddcace70fdd90b5623b
                           .group:00000000 wm4._types.h.20.dd0d04dca3800a0d2a6129b87f3adbb2
                           .group:00000000 wm4.stddef.h.158.6f8e08a347b1cff664332fa350bfceb3
                           .group:00000000 wm4._types.h.127.3bdfe3ff8ea2d0985b03d9cbe93480e3
                           .group:00000000 wm4.reent.h.18.25503cdc8b7e55dd0d6ea7b3e5af7a03
                           .group:00000000 wm4.lock.h.2.1461d1fff82dffe8bfddc23307f6484f
                           .group:00000000 wm4.reent.h.78.6b87466b04591b1f1cb88c14fdf2ba9e
                           .group:00000000 wm4.math.h.13.47cfc34cae8a1153323939c4d32cf7c2

UNDEFINED SYMBOLS
get_channel_raw_value
fminf
fmaxf
