ARM GAS  C:\Users\30514\AppData\Local\Temp\cc83wd8q.s 			page 1


   1              		.cpu cortex-m4
   2              		.arch armv7e-m
   3              		.fpu fpv4-sp-d16
   4              		.eabi_attribute 27, 1
   5              		.eabi_attribute 28, 1
   6              		.eabi_attribute 20, 1
   7              		.eabi_attribute 21, 1
   8              		.eabi_attribute 23, 3
   9              		.eabi_attribute 24, 1
  10              		.eabi_attribute 25, 1
  11              		.eabi_attribute 26, 1
  12              		.eabi_attribute 30, 1
  13              		.eabi_attribute 34, 1
  14              		.eabi_attribute 18, 4
  15              		.file	"dm_ctrl.c"
  16              		.text
  17              	.Ltext0:
  18              		.cfi_sections	.debug_frame
  19              		.file 1 "Module/motor/dm_ctrl.c"
  20              		.section	.text.dm4310_motor_init,"ax",%progbits
  21              		.align	1
  22              		.global	dm4310_motor_init
  23              		.syntax unified
  24              		.thumb
  25              		.thumb_func
  27              	dm4310_motor_init:
  28              	.LFB134:
   1:Module/motor/dm_ctrl.c **** #include "dm_drv.h"
   2:Module/motor/dm_ctrl.c **** #include "dm_ctrl.h"
   3:Module/motor/dm_ctrl.c **** #include "can_driver.h"
   4:Module/motor/dm_ctrl.c **** #include "string.h"
   5:Module/motor/dm_ctrl.c **** 
   6:Module/motor/dm_ctrl.c **** motor_t motor[num];
   7:Module/motor/dm_ctrl.c **** int8_t motor_id = 1;
   8:Module/motor/dm_ctrl.c **** 
   9:Module/motor/dm_ctrl.c **** /**
  10:Module/motor/dm_ctrl.c **** ************************************************************************
  11:Module/motor/dm_ctrl.c **** * @brief:      	dm4310_motor_init: DM4310ÁîµÊú∫ÂàùÂßãÂåñÂáΩÊï∞
  12:Module/motor/dm_ctrl.c **** * @param:      	void
  13:Module/motor/dm_ctrl.c **** * @retval:     	void
  14:Module/motor/dm_ctrl.c **** * @details:    	ÂàùÂßãÂåñ‰∏â‰∏™DM4310ÂûãÂè∑ÁöÑÁîµÊú∫ÔºåËÆæÁΩÆÈªòËÆ§ÂèÇÊï∞ÂíåÊéßÂà∂Ê®°Âºè„ÄÇ
  15:Module/motor/dm_ctrl.c **** *               ÂàÜÂà´ÂàùÂßãÂåñMotor1ÂíåMotor2ÔºåËÆæÁΩÆID„ÄÅÊéßÂà∂Ê®°ÂºèÂíåÂëΩ‰ª§Ê®°ÂºèÁ≠â‰ø°ÊÅØ„ÄÇ
  16:Module/motor/dm_ctrl.c **** ************************************************************************
  17:Module/motor/dm_ctrl.c **** **/
  18:Module/motor/dm_ctrl.c **** void dm4310_motor_init(void)
  19:Module/motor/dm_ctrl.c **** {
  29              		.loc 1 19 1 view -0
  30              		.cfi_startproc
  31              		@ args = 0, pretend = 0, frame = 0
  32              		@ frame_needed = 0, uses_anonymous_args = 0
  33 0000 38B5     		push	{r3, r4, r5, lr}
  34              	.LCFI0:
  35              		.cfi_def_cfa_offset 16
  36              		.cfi_offset 3, -16
  37              		.cfi_offset 4, -12
  38              		.cfi_offset 5, -8
  39              		.cfi_offset 14, -4
ARM GAS  C:\Users\30514\AppData\Local\Temp\cc83wd8q.s 			page 2


  20:Module/motor/dm_ctrl.c **** 	// ÂàùÂßãÂåñMotor1ÂíåMotor2ÁöÑÁîµÊú∫ÁªìÊûÑ
  21:Module/motor/dm_ctrl.c **** 	memset(&motor[Motor1], 0, sizeof(motor[Motor1]));
  40              		.loc 1 21 2 view .LVU1
  41 0002 084C     		ldr	r4, .L3
  42 0004 6C25     		movs	r5, #108
  43 0006 2A46     		mov	r2, r5
  44 0008 0021     		movs	r1, #0
  45 000a 2046     		mov	r0, r4
  46 000c FFF7FEFF 		bl	memset
  47              	.LVL0:
  22:Module/motor/dm_ctrl.c **** 	memset(&motor[Motor2], 0, sizeof(motor[Motor2]));
  48              		.loc 1 22 2 view .LVU2
  49 0010 2A46     		mov	r2, r5
  50 0012 0021     		movs	r1, #0
  51 0014 6019     		adds	r0, r4, r5
  52 0016 FFF7FEFF 		bl	memset
  53              	.LVL1:
  23:Module/motor/dm_ctrl.c **** 	//memset(&motor[Motor3], 0, sizeof(motor[Motor2]));
  24:Module/motor/dm_ctrl.c **** 
  25:Module/motor/dm_ctrl.c **** 	// ËÆæÁΩÆMotor1ÁöÑÁîµÊú∫‰ø°ÊÅØ
  26:Module/motor/dm_ctrl.c **** 	motor[Motor1].id = 1;
  54              		.loc 1 26 2 view .LVU3
  55              		.loc 1 26 19 is_stmt 0 view .LVU4
  56 001a 0123     		movs	r3, #1
  57 001c 2370     		strb	r3, [r4]
  27:Module/motor/dm_ctrl.c **** 	motor[Motor1].ctrl.mode = 0;		// 0: MITÊ®°Âºè   1: ‰ΩçÁΩÆÈÄüÂ∫¶Ê®°Âºè   2: ÈÄüÂ∫¶Ê®°Âºè
  58              		.loc 1 27 2 is_stmt 1 view .LVU5
  28:Module/motor/dm_ctrl.c **** 	motor[Motor1].cmd.mode = 0;
  59              		.loc 1 28 2 view .LVU6
  29:Module/motor/dm_ctrl.c **** 
  30:Module/motor/dm_ctrl.c **** 	// ËÆæÁΩÆMotor2ÁöÑÁîµÊú∫‰ø°ÊÅØ
  31:Module/motor/dm_ctrl.c **** 	motor[Motor2].id = 1;
  60              		.loc 1 31 2 view .LVU7
  61              		.loc 1 31 19 is_stmt 0 view .LVU8
  62 001e 84F86C30 		strb	r3, [r4, #108]
  32:Module/motor/dm_ctrl.c **** 	motor[Motor2].ctrl.mode = 0;
  63              		.loc 1 32 2 is_stmt 1 view .LVU9
  33:Module/motor/dm_ctrl.c **** 	motor[Motor2].cmd.mode = 0;
  64              		.loc 1 33 2 view .LVU10
  34:Module/motor/dm_ctrl.c **** 	
  35:Module/motor/dm_ctrl.c **** 	// ËÆæÁΩÆMotor3ÁöÑÁîµÊú∫‰ø°ÊÅØ
  36:Module/motor/dm_ctrl.c **** 	//motor[Motor3].id = 2;
  37:Module/motor/dm_ctrl.c **** 	//motor[Motor3].ctrl.mode = 2;
  38:Module/motor/dm_ctrl.c **** 	//motor[Motor3].cmd.mode = 2;
  39:Module/motor/dm_ctrl.c **** }
  65              		.loc 1 39 1 is_stmt 0 view .LVU11
  66 0022 38BD     		pop	{r3, r4, r5, pc}
  67              	.L4:
  68              		.align	2
  69              	.L3:
  70 0024 00000000 		.word	motor
  71              		.cfi_endproc
  72              	.LFE134:
  74              		.section	.text.ctrl_enable,"ax",%progbits
  75              		.align	1
  76              		.global	ctrl_enable
  77              		.syntax unified
ARM GAS  C:\Users\30514\AppData\Local\Temp\cc83wd8q.s 			page 3


  78              		.thumb
  79              		.thumb_func
  81              	ctrl_enable:
  82              	.LFB135:
  40:Module/motor/dm_ctrl.c **** 
  41:Module/motor/dm_ctrl.c **** /**
  42:Module/motor/dm_ctrl.c **** ************************************************************************
  43:Module/motor/dm_ctrl.c **** * @brief:      	ctrl_enable: ÂêØÁî®ÁîµÊú∫ÊéßÂà∂ÂáΩÊï∞
  44:Module/motor/dm_ctrl.c **** * @param:      	void
  45:Module/motor/dm_ctrl.c **** * @retval:     	void
  46:Module/motor/dm_ctrl.c **** * @details:    	Ê†πÊçÆÂΩìÂâçÁîµÊú∫IDÔºàmotor_idÔºâÔºåÂêØÁî®ÂØπÂ∫îÁöÑÁîµÊú∫ÊéßÂà∂„ÄÇ
  47:Module/motor/dm_ctrl.c **** *               ËÆæÁΩÆÊåáÂÆöÁîµÊú∫ÁöÑÂêØÂä®Ê†áÂøóÔºåÂπ∂Ë∞ÉÁî®dm4310_enableÂáΩÊï∞ÂêØÁî®ÁîµÊú∫„ÄÇ
  48:Module/motor/dm_ctrl.c **** ************************************************************************
  49:Module/motor/dm_ctrl.c **** **/
  50:Module/motor/dm_ctrl.c **** void ctrl_enable(void)
  51:Module/motor/dm_ctrl.c **** {
  83              		.loc 1 51 1 is_stmt 1 view -0
  84              		.cfi_startproc
  85              		@ args = 0, pretend = 0, frame = 0
  86              		@ frame_needed = 0, uses_anonymous_args = 0
  87 0000 08B5     		push	{r3, lr}
  88              	.LCFI1:
  89              		.cfi_def_cfa_offset 8
  90              		.cfi_offset 3, -8
  91              		.cfi_offset 14, -4
  52:Module/motor/dm_ctrl.c **** 	switch(motor_id)
  92              		.loc 1 52 2 view .LVU13
  93 0002 0B4B     		ldr	r3, .L10
  94 0004 93F90030 		ldrsb	r3, [r3]
  95 0008 012B     		cmp	r3, #1
  96 000a 0AD0     		beq	.L6
  97 000c 022B     		cmp	r3, #2
  98 000e 0ED1     		bne	.L5
  53:Module/motor/dm_ctrl.c **** 	{
  54:Module/motor/dm_ctrl.c **** 		case 1:
  55:Module/motor/dm_ctrl.c **** 			// ÂêØÁî®Motor1ÁöÑÁîµÊú∫ÊéßÂà∂
  56:Module/motor/dm_ctrl.c **** 			motor[Motor1].start_flag = 1;
  57:Module/motor/dm_ctrl.c **** 			dm4310_enable(&hcan1, &motor[Motor1]);
  58:Module/motor/dm_ctrl.c **** 			break;
  59:Module/motor/dm_ctrl.c **** 		case 2:
  60:Module/motor/dm_ctrl.c **** 			// ÂêØÁî®Motor2ÁöÑÁîµÊú∫ÊéßÂà∂
  61:Module/motor/dm_ctrl.c **** 			motor[Motor2].start_flag = 1;
  99              		.loc 1 61 4 view .LVU14
 100              		.loc 1 61 29 is_stmt 0 view .LVU15
 101 0010 0849     		ldr	r1, .L10+4
 102 0012 0123     		movs	r3, #1
 103 0014 81F86D30 		strb	r3, [r1, #109]
  62:Module/motor/dm_ctrl.c **** 			dm4310_enable(&hcan2, &motor[Motor2]);
 104              		.loc 1 62 4 is_stmt 1 view .LVU16
 105 0018 6C31     		adds	r1, r1, #108
 106 001a 0748     		ldr	r0, .L10+8
 107 001c FFF7FEFF 		bl	dm4310_enable
 108              	.LVL2:
  63:Module/motor/dm_ctrl.c **** 			break;
 109              		.loc 1 63 4 view .LVU17
  64:Module/motor/dm_ctrl.c **** 		//case 3:
  65:Module/motor/dm_ctrl.c **** 			// ÂêØÁî®Motor3ÁöÑÁîµÊú∫ÊéßÂà∂
ARM GAS  C:\Users\30514\AppData\Local\Temp\cc83wd8q.s 			page 4


  66:Module/motor/dm_ctrl.c **** 		//	motor[Motor3].start_flag = 1;
  67:Module/motor/dm_ctrl.c **** 		//	dm4310_enable(&hcan1, &motor[Motor3]);
  68:Module/motor/dm_ctrl.c **** 		//	break;
  69:Module/motor/dm_ctrl.c **** 	}
  70:Module/motor/dm_ctrl.c **** }
 110              		.loc 1 70 1 is_stmt 0 view .LVU18
 111 0020 05E0     		b	.L5
 112              	.L6:
  56:Module/motor/dm_ctrl.c **** 			dm4310_enable(&hcan1, &motor[Motor1]);
 113              		.loc 1 56 4 is_stmt 1 view .LVU19
  56:Module/motor/dm_ctrl.c **** 			dm4310_enable(&hcan1, &motor[Motor1]);
 114              		.loc 1 56 29 is_stmt 0 view .LVU20
 115 0022 0449     		ldr	r1, .L10+4
 116 0024 0123     		movs	r3, #1
 117 0026 4B70     		strb	r3, [r1, #1]
  57:Module/motor/dm_ctrl.c **** 			break;
 118              		.loc 1 57 4 is_stmt 1 view .LVU21
 119 0028 0448     		ldr	r0, .L10+12
 120 002a FFF7FEFF 		bl	dm4310_enable
 121              	.LVL3:
  58:Module/motor/dm_ctrl.c **** 		case 2:
 122              		.loc 1 58 4 view .LVU22
 123              	.L5:
 124              		.loc 1 70 1 is_stmt 0 view .LVU23
 125 002e 08BD     		pop	{r3, pc}
 126              	.L11:
 127              		.align	2
 128              	.L10:
 129 0030 00000000 		.word	motor_id
 130 0034 00000000 		.word	motor
 131 0038 00000000 		.word	hcan2
 132 003c 00000000 		.word	hcan1
 133              		.cfi_endproc
 134              	.LFE135:
 136              		.section	.text.ctrl_disable,"ax",%progbits
 137              		.align	1
 138              		.global	ctrl_disable
 139              		.syntax unified
 140              		.thumb
 141              		.thumb_func
 143              	ctrl_disable:
 144              	.LFB136:
  71:Module/motor/dm_ctrl.c **** /**
  72:Module/motor/dm_ctrl.c **** ************************************************************************
  73:Module/motor/dm_ctrl.c **** * @brief:      	ctrl_disable: Á¶ÅÁî®ÁîµÊú∫ÊéßÂà∂ÂáΩÊï∞
  74:Module/motor/dm_ctrl.c **** * @param:      	void
  75:Module/motor/dm_ctrl.c **** * @retval:     	void
  76:Module/motor/dm_ctrl.c **** * @details:    	Ê†πÊçÆÂΩìÂâçÁîµÊú∫IDÔºàmotor_idÔºâÔºåÁ¶ÅÁî®ÂØπÂ∫îÁöÑÁîµÊú∫ÊéßÂà∂„ÄÇ
  77:Module/motor/dm_ctrl.c **** *               ËÆæÁΩÆÊåáÂÆöÁîµÊú∫ÁöÑÂêØÂä®Ê†áÂøó‰∏∫0ÔºåÂπ∂Ë∞ÉÁî®dm4310_disableÂáΩÊï∞Á¶ÅÁî®ÁîµÊú∫„Ä
  78:Module/motor/dm_ctrl.c **** ************************************************************************
  79:Module/motor/dm_ctrl.c **** **/
  80:Module/motor/dm_ctrl.c **** void ctrl_disable(void)
  81:Module/motor/dm_ctrl.c **** {
 145              		.loc 1 81 1 is_stmt 1 view -0
 146              		.cfi_startproc
 147              		@ args = 0, pretend = 0, frame = 0
 148              		@ frame_needed = 0, uses_anonymous_args = 0
ARM GAS  C:\Users\30514\AppData\Local\Temp\cc83wd8q.s 			page 5


 149 0000 08B5     		push	{r3, lr}
 150              	.LCFI2:
 151              		.cfi_def_cfa_offset 8
 152              		.cfi_offset 3, -8
 153              		.cfi_offset 14, -4
  82:Module/motor/dm_ctrl.c **** 	switch(motor_id)
 154              		.loc 1 82 2 view .LVU25
 155 0002 0B4B     		ldr	r3, .L17
 156 0004 93F90030 		ldrsb	r3, [r3]
 157 0008 012B     		cmp	r3, #1
 158 000a 0AD0     		beq	.L13
 159 000c 022B     		cmp	r3, #2
 160 000e 0ED1     		bne	.L12
  83:Module/motor/dm_ctrl.c **** 	{
  84:Module/motor/dm_ctrl.c **** 		case 1:
  85:Module/motor/dm_ctrl.c **** 			// Á¶ÅÁî®Motor1ÁöÑÁîµÊú∫ÊéßÂà∂
  86:Module/motor/dm_ctrl.c **** 			motor[Motor1].start_flag = 0;
  87:Module/motor/dm_ctrl.c **** 			dm4310_disable(&hcan1, &motor[Motor1]);
  88:Module/motor/dm_ctrl.c **** 			break;
  89:Module/motor/dm_ctrl.c **** 		case 2:
  90:Module/motor/dm_ctrl.c **** 			// Á¶ÅÁî®Motor2ÁöÑÁîµÊú∫ÊéßÂà∂
  91:Module/motor/dm_ctrl.c **** 			motor[Motor2].start_flag = 0;
 161              		.loc 1 91 4 view .LVU26
 162              		.loc 1 91 29 is_stmt 0 view .LVU27
 163 0010 0849     		ldr	r1, .L17+4
 164 0012 0023     		movs	r3, #0
 165 0014 81F86D30 		strb	r3, [r1, #109]
  92:Module/motor/dm_ctrl.c **** 			dm4310_disable(&hcan2, &motor[Motor2]);
 166              		.loc 1 92 4 is_stmt 1 view .LVU28
 167 0018 6C31     		adds	r1, r1, #108
 168 001a 0748     		ldr	r0, .L17+8
 169 001c FFF7FEFF 		bl	dm4310_disable
 170              	.LVL4:
  93:Module/motor/dm_ctrl.c **** 			break;
 171              		.loc 1 93 4 view .LVU29
  94:Module/motor/dm_ctrl.c **** 		//case 3:
  95:Module/motor/dm_ctrl.c **** 			// Á¶ÅÁî®Motor2ÁöÑÁîµÊú∫ÊéßÂà∂
  96:Module/motor/dm_ctrl.c **** 		//	motor[Motor3].start_flag = 0;
  97:Module/motor/dm_ctrl.c **** 		//	dm4310_disable(&hcan1, &motor[Motor3]);
  98:Module/motor/dm_ctrl.c **** 		//	break;
  99:Module/motor/dm_ctrl.c **** 	}
 100:Module/motor/dm_ctrl.c **** }
 172              		.loc 1 100 1 is_stmt 0 view .LVU30
 173 0020 05E0     		b	.L12
 174              	.L13:
  86:Module/motor/dm_ctrl.c **** 			dm4310_disable(&hcan1, &motor[Motor1]);
 175              		.loc 1 86 4 is_stmt 1 view .LVU31
  86:Module/motor/dm_ctrl.c **** 			dm4310_disable(&hcan1, &motor[Motor1]);
 176              		.loc 1 86 29 is_stmt 0 view .LVU32
 177 0022 0449     		ldr	r1, .L17+4
 178 0024 0023     		movs	r3, #0
 179 0026 4B70     		strb	r3, [r1, #1]
  87:Module/motor/dm_ctrl.c **** 			break;
 180              		.loc 1 87 4 is_stmt 1 view .LVU33
 181 0028 0448     		ldr	r0, .L17+12
 182 002a FFF7FEFF 		bl	dm4310_disable
 183              	.LVL5:
ARM GAS  C:\Users\30514\AppData\Local\Temp\cc83wd8q.s 			page 6


  88:Module/motor/dm_ctrl.c **** 		case 2:
 184              		.loc 1 88 4 view .LVU34
 185              	.L12:
 186              		.loc 1 100 1 is_stmt 0 view .LVU35
 187 002e 08BD     		pop	{r3, pc}
 188              	.L18:
 189              		.align	2
 190              	.L17:
 191 0030 00000000 		.word	motor_id
 192 0034 00000000 		.word	motor
 193 0038 00000000 		.word	hcan2
 194 003c 00000000 		.word	hcan1
 195              		.cfi_endproc
 196              	.LFE136:
 198              		.section	.text.ctrl_set,"ax",%progbits
 199              		.align	1
 200              		.global	ctrl_set
 201              		.syntax unified
 202              		.thumb
 203              		.thumb_func
 205              	ctrl_set:
 206              	.LFB137:
 101:Module/motor/dm_ctrl.c **** /**
 102:Module/motor/dm_ctrl.c **** ************************************************************************
 103:Module/motor/dm_ctrl.c **** * @brief:      	ctrl_set: ËÆæÁΩÆÁîµÊú∫ÂèÇÊï∞ÂáΩÊï∞
 104:Module/motor/dm_ctrl.c **** * @param:      	void
 105:Module/motor/dm_ctrl.c **** * @retval:     	void
 106:Module/motor/dm_ctrl.c **** * @details:    	Ê†πÊçÆÂΩìÂâçÁîµÊú∫IDÔºàmotor_idÔºâÔºåËÆæÁΩÆÂØπÂ∫îÁîµÊú∫ÁöÑÂèÇÊï∞„ÄÇ
 107:Module/motor/dm_ctrl.c **** *               Ë∞ÉÁî®dm4310_setÂáΩÊï∞ËÆæÁΩÆÊåáÂÆöÁîµÊú∫ÁöÑÂèÇÊï∞Ôºå‰ª•ÂìçÂ∫îÂ§ñÈÉ®ÂëΩ‰ª§„ÄÇ
 108:Module/motor/dm_ctrl.c **** ************************************************************************
 109:Module/motor/dm_ctrl.c **** **/
 110:Module/motor/dm_ctrl.c **** void ctrl_set(void)
 111:Module/motor/dm_ctrl.c **** {
 207              		.loc 1 111 1 is_stmt 1 view -0
 208              		.cfi_startproc
 209              		@ args = 0, pretend = 0, frame = 0
 210              		@ frame_needed = 0, uses_anonymous_args = 0
 211 0000 08B5     		push	{r3, lr}
 212              	.LCFI3:
 213              		.cfi_def_cfa_offset 8
 214              		.cfi_offset 3, -8
 215              		.cfi_offset 14, -4
 112:Module/motor/dm_ctrl.c **** 	switch(motor_id)
 216              		.loc 1 112 2 view .LVU37
 217 0002 074B     		ldr	r3, .L24
 218 0004 93F90030 		ldrsb	r3, [r3]
 219 0008 012B     		cmp	r3, #1
 220 000a 05D0     		beq	.L20
 221 000c 022B     		cmp	r3, #2
 222 000e 06D1     		bne	.L19
 113:Module/motor/dm_ctrl.c **** 	{
 114:Module/motor/dm_ctrl.c **** 		case 1:
 115:Module/motor/dm_ctrl.c **** 			// ËÆæÁΩÆMotor1ÁöÑÁîµÊú∫ÂèÇÊï∞
 116:Module/motor/dm_ctrl.c **** 			dm4310_set(&motor[Motor1]);
 117:Module/motor/dm_ctrl.c **** 			break;
 118:Module/motor/dm_ctrl.c **** 		case 2:
 119:Module/motor/dm_ctrl.c **** 			// ËÆæÁΩÆMotor2ÁöÑÁîµÊú∫ÂèÇÊï∞
ARM GAS  C:\Users\30514\AppData\Local\Temp\cc83wd8q.s 			page 7


 120:Module/motor/dm_ctrl.c **** 			dm4310_set(&motor[Motor2]);
 223              		.loc 1 120 4 view .LVU38
 224 0010 0448     		ldr	r0, .L24+4
 225 0012 FFF7FEFF 		bl	dm4310_set
 226              	.LVL6:
 121:Module/motor/dm_ctrl.c **** 			break;
 227              		.loc 1 121 4 view .LVU39
 122:Module/motor/dm_ctrl.c **** 		//case 3:
 123:Module/motor/dm_ctrl.c **** 			// ËÆæÁΩÆMotor3ÁöÑÁîµÊú∫ÂèÇÊï∞
 124:Module/motor/dm_ctrl.c **** 		//	dm4310_set(&motor[Motor3]);
 125:Module/motor/dm_ctrl.c **** 		//	break;
 126:Module/motor/dm_ctrl.c **** 	}
 127:Module/motor/dm_ctrl.c **** }
 228              		.loc 1 127 1 is_stmt 0 view .LVU40
 229 0016 02E0     		b	.L19
 230              	.L20:
 116:Module/motor/dm_ctrl.c **** 			break;
 231              		.loc 1 116 4 is_stmt 1 view .LVU41
 232 0018 0348     		ldr	r0, .L24+8
 233 001a FFF7FEFF 		bl	dm4310_set
 234              	.LVL7:
 117:Module/motor/dm_ctrl.c **** 		case 2:
 235              		.loc 1 117 4 view .LVU42
 236              	.L19:
 237              		.loc 1 127 1 is_stmt 0 view .LVU43
 238 001e 08BD     		pop	{r3, pc}
 239              	.L25:
 240              		.align	2
 241              	.L24:
 242 0020 00000000 		.word	motor_id
 243 0024 6C000000 		.word	motor+108
 244 0028 00000000 		.word	motor
 245              		.cfi_endproc
 246              	.LFE137:
 248              		.section	.text.ctrl_clear_para,"ax",%progbits
 249              		.align	1
 250              		.global	ctrl_clear_para
 251              		.syntax unified
 252              		.thumb
 253              		.thumb_func
 255              	ctrl_clear_para:
 256              	.LFB138:
 128:Module/motor/dm_ctrl.c **** /**
 129:Module/motor/dm_ctrl.c **** ************************************************************************
 130:Module/motor/dm_ctrl.c **** * @brief:      	ctrl_clear_para: Ê∏ÖÈô§ÁîµÊú∫ÂèÇÊï∞ÂáΩÊï∞
 131:Module/motor/dm_ctrl.c **** * @param:      	void
 132:Module/motor/dm_ctrl.c **** * @retval:     	void
 133:Module/motor/dm_ctrl.c **** * @details:    	Ê†πÊçÆÂΩìÂâçÁîµÊú∫IDÔºàmotor_idÔºâÔºåÊ∏ÖÈô§ÂØπÂ∫îÁîµÊú∫ÁöÑÂèÇÊï∞„ÄÇ
 134:Module/motor/dm_ctrl.c **** *               Ë∞ÉÁî®dm4310_clearÂáΩÊï∞Ê∏ÖÈô§ÊåáÂÆöÁîµÊú∫ÁöÑÂèÇÊï∞Ôºå‰ª•ÂìçÂ∫îÂ§ñÈÉ®ÂëΩ‰ª§„ÄÇ
 135:Module/motor/dm_ctrl.c **** ************************************************************************
 136:Module/motor/dm_ctrl.c **** **/
 137:Module/motor/dm_ctrl.c **** void ctrl_clear_para(void)
 138:Module/motor/dm_ctrl.c **** {
 257              		.loc 1 138 1 is_stmt 1 view -0
 258              		.cfi_startproc
 259              		@ args = 0, pretend = 0, frame = 0
 260              		@ frame_needed = 0, uses_anonymous_args = 0
ARM GAS  C:\Users\30514\AppData\Local\Temp\cc83wd8q.s 			page 8


 261 0000 08B5     		push	{r3, lr}
 262              	.LCFI4:
 263              		.cfi_def_cfa_offset 8
 264              		.cfi_offset 3, -8
 265              		.cfi_offset 14, -4
 139:Module/motor/dm_ctrl.c **** 	switch(motor_id)
 266              		.loc 1 139 2 view .LVU45
 267 0002 074B     		ldr	r3, .L31
 268 0004 93F90030 		ldrsb	r3, [r3]
 269 0008 012B     		cmp	r3, #1
 270 000a 05D0     		beq	.L27
 271 000c 022B     		cmp	r3, #2
 272 000e 06D1     		bne	.L26
 140:Module/motor/dm_ctrl.c **** 	{
 141:Module/motor/dm_ctrl.c **** 		case 1:
 142:Module/motor/dm_ctrl.c **** 			// Ê∏ÖÈô§Motor1ÁöÑÁîµÊú∫ÂèÇÊï∞
 143:Module/motor/dm_ctrl.c **** 			dm4310_clear_para(&motor[Motor1]);
 144:Module/motor/dm_ctrl.c **** 			break;
 145:Module/motor/dm_ctrl.c **** 		case 2:
 146:Module/motor/dm_ctrl.c **** 			// Ê∏ÖÈô§Motor2ÁöÑÁîµÊú∫ÂèÇÊï∞
 147:Module/motor/dm_ctrl.c **** 			dm4310_clear_para(&motor[Motor2]);
 273              		.loc 1 147 4 view .LVU46
 274 0010 0448     		ldr	r0, .L31+4
 275 0012 FFF7FEFF 		bl	dm4310_clear_para
 276              	.LVL8:
 148:Module/motor/dm_ctrl.c **** 			break;
 277              		.loc 1 148 4 view .LVU47
 149:Module/motor/dm_ctrl.c **** 		//case 3:
 150:Module/motor/dm_ctrl.c **** 			// Ê∏ÖÈô§Motor2ÁöÑÁîµÊú∫ÂèÇÊï∞
 151:Module/motor/dm_ctrl.c **** 		//	dm4310_clear_para(&motor[Motor3]);
 152:Module/motor/dm_ctrl.c **** 		//	break;
 153:Module/motor/dm_ctrl.c **** 	}
 154:Module/motor/dm_ctrl.c **** }
 278              		.loc 1 154 1 is_stmt 0 view .LVU48
 279 0016 02E0     		b	.L26
 280              	.L27:
 143:Module/motor/dm_ctrl.c **** 			break;
 281              		.loc 1 143 4 is_stmt 1 view .LVU49
 282 0018 0348     		ldr	r0, .L31+8
 283 001a FFF7FEFF 		bl	dm4310_clear_para
 284              	.LVL9:
 144:Module/motor/dm_ctrl.c **** 		case 2:
 285              		.loc 1 144 4 view .LVU50
 286              	.L26:
 287              		.loc 1 154 1 is_stmt 0 view .LVU51
 288 001e 08BD     		pop	{r3, pc}
 289              	.L32:
 290              		.align	2
 291              	.L31:
 292 0020 00000000 		.word	motor_id
 293 0024 6C000000 		.word	motor+108
 294 0028 00000000 		.word	motor
 295              		.cfi_endproc
 296              	.LFE138:
 298              		.section	.text.ctrl_clear_err,"ax",%progbits
 299              		.align	1
 300              		.global	ctrl_clear_err
ARM GAS  C:\Users\30514\AppData\Local\Temp\cc83wd8q.s 			page 9


 301              		.syntax unified
 302              		.thumb
 303              		.thumb_func
 305              	ctrl_clear_err:
 306              	.LFB139:
 155:Module/motor/dm_ctrl.c **** /**
 156:Module/motor/dm_ctrl.c **** ************************************************************************
 157:Module/motor/dm_ctrl.c **** * @brief:      	ctrl_clear_err: Ê∏ÖÈô§ÁîµÊú∫ÈîôËØØ‰ø°ÊÅØ
 158:Module/motor/dm_ctrl.c **** * @param:      	void
 159:Module/motor/dm_ctrl.c **** * @retval:     	void
 160:Module/motor/dm_ctrl.c **** * @details:    	Ê†πÊçÆÂΩìÂâçÁîµÊú∫IDÔºàmotor_idÔºâÔºåÊ∏ÖÈô§ÂØπÂ∫îÁîµÊú∫ÁöÑÂèÇÊï∞„ÄÇ
 161:Module/motor/dm_ctrl.c **** *               Ë∞ÉÁî®dm4310_clearÂáΩÊï∞Ê∏ÖÈô§ÊåáÂÆöÁîµÊú∫ÁöÑÂèÇÊï∞Ôºå‰ª•ÂìçÂ∫îÂ§ñÈÉ®ÂëΩ‰ª§„ÄÇ
 162:Module/motor/dm_ctrl.c **** ************************************************************************
 163:Module/motor/dm_ctrl.c **** **/
 164:Module/motor/dm_ctrl.c **** void ctrl_clear_err(void)
 165:Module/motor/dm_ctrl.c **** {
 307              		.loc 1 165 1 is_stmt 1 view -0
 308              		.cfi_startproc
 309              		@ args = 0, pretend = 0, frame = 0
 310              		@ frame_needed = 0, uses_anonymous_args = 0
 311 0000 08B5     		push	{r3, lr}
 312              	.LCFI5:
 313              		.cfi_def_cfa_offset 8
 314              		.cfi_offset 3, -8
 315              		.cfi_offset 14, -4
 166:Module/motor/dm_ctrl.c **** 	switch(motor_id)
 316              		.loc 1 166 2 view .LVU53
 317 0002 084B     		ldr	r3, .L38
 318 0004 93F90030 		ldrsb	r3, [r3]
 319 0008 012B     		cmp	r3, #1
 320 000a 06D0     		beq	.L34
 321 000c 022B     		cmp	r3, #2
 322 000e 08D1     		bne	.L33
 167:Module/motor/dm_ctrl.c **** 	{
 168:Module/motor/dm_ctrl.c **** 		case 1:
 169:Module/motor/dm_ctrl.c **** 			// Ê∏ÖÈô§Motor1ÁöÑÁîµÊú∫ÈîôËØØÂèÇÊï∞
 170:Module/motor/dm_ctrl.c **** 			dm4310_clear_err(&hcan1, &motor[Motor1]);
 171:Module/motor/dm_ctrl.c **** 			break;
 172:Module/motor/dm_ctrl.c **** 		case 2:
 173:Module/motor/dm_ctrl.c **** 			// Ê∏ÖÈô§Motor2ÁöÑÁîµÊú∫ÈîôËØØÂèÇÊï∞
 174:Module/motor/dm_ctrl.c **** 			dm4310_clear_err(&hcan2, &motor[Motor2]);
 323              		.loc 1 174 4 view .LVU54
 324 0010 0549     		ldr	r1, .L38+4
 325 0012 0648     		ldr	r0, .L38+8
 326 0014 FFF7FEFF 		bl	dm4310_clear_err
 327              	.LVL10:
 175:Module/motor/dm_ctrl.c **** 			break;
 328              		.loc 1 175 4 view .LVU55
 176:Module/motor/dm_ctrl.c **** 		//case 3:
 177:Module/motor/dm_ctrl.c **** 			// Ê∏ÖÈô§Motor3ÁöÑÁîµÊú∫ÈîôËØØÂèÇÊï∞
 178:Module/motor/dm_ctrl.c **** 		//	dm4310_clear_err(&hcan1, &motor[Motor3]);
 179:Module/motor/dm_ctrl.c **** 		//	break;
 180:Module/motor/dm_ctrl.c **** 	}
 181:Module/motor/dm_ctrl.c **** }
 329              		.loc 1 181 1 is_stmt 0 view .LVU56
 330 0018 03E0     		b	.L33
 331              	.L34:
ARM GAS  C:\Users\30514\AppData\Local\Temp\cc83wd8q.s 			page 10


 170:Module/motor/dm_ctrl.c **** 			break;
 332              		.loc 1 170 4 is_stmt 1 view .LVU57
 333 001a 0549     		ldr	r1, .L38+12
 334 001c 0548     		ldr	r0, .L38+16
 335 001e FFF7FEFF 		bl	dm4310_clear_err
 336              	.LVL11:
 171:Module/motor/dm_ctrl.c **** 		case 2:
 337              		.loc 1 171 4 view .LVU58
 338              	.L33:
 339              		.loc 1 181 1 is_stmt 0 view .LVU59
 340 0022 08BD     		pop	{r3, pc}
 341              	.L39:
 342              		.align	2
 343              	.L38:
 344 0024 00000000 		.word	motor_id
 345 0028 6C000000 		.word	motor+108
 346 002c 00000000 		.word	hcan2
 347 0030 00000000 		.word	motor
 348 0034 00000000 		.word	hcan1
 349              		.cfi_endproc
 350              	.LFE139:
 352              		.section	.text.ctrl_send,"ax",%progbits
 353              		.align	1
 354              		.global	ctrl_send
 355              		.syntax unified
 356              		.thumb
 357              		.thumb_func
 359              	ctrl_send:
 360              	.LFB140:
 182:Module/motor/dm_ctrl.c **** /**
 183:Module/motor/dm_ctrl.c **** ************************************************************************
 184:Module/motor/dm_ctrl.c **** * @brief:      	ctrl_send: ÂèëÈÄÅÁîµÊú∫ÊéßÂà∂ÂëΩ‰ª§ÂáΩÊï∞
 185:Module/motor/dm_ctrl.c **** * @param:      	void
 186:Module/motor/dm_ctrl.c **** * @retval:     	void
 187:Module/motor/dm_ctrl.c **** * @details:    	Ê†πÊçÆÂΩìÂâçÁîµÊú∫IDÔºàmotor_idÔºâÔºåÂêëÂØπÂ∫îÁîµÊú∫ÂèëÈÄÅÊéßÂà∂ÂëΩ‰ª§„ÄÇ
 188:Module/motor/dm_ctrl.c **** *               Ë∞ÉÁî®dm4310_ctrl_sendÂáΩÊï∞ÂêëÊåáÂÆöÁîµÊú∫ÂèëÈÄÅÊéßÂà∂ÂëΩ‰ª§Ôºå‰ª•ÂìçÂ∫îÂ§ñÈÉ®ÂëΩ‰
 189:Module/motor/dm_ctrl.c **** ************************************************************************
 190:Module/motor/dm_ctrl.c **** **/
 191:Module/motor/dm_ctrl.c **** void ctrl_send(void)
 192:Module/motor/dm_ctrl.c **** {
 361              		.loc 1 192 1 is_stmt 1 view -0
 362              		.cfi_startproc
 363              		@ args = 0, pretend = 0, frame = 0
 364              		@ frame_needed = 0, uses_anonymous_args = 0
 365 0000 08B5     		push	{r3, lr}
 366              	.LCFI6:
 367              		.cfi_def_cfa_offset 8
 368              		.cfi_offset 3, -8
 369              		.cfi_offset 14, -4
 193:Module/motor/dm_ctrl.c **** 	switch(motor_id)
 370              		.loc 1 193 2 view .LVU61
 371 0002 084B     		ldr	r3, .L45
 372 0004 93F90030 		ldrsb	r3, [r3]
 373 0008 012B     		cmp	r3, #1
 374 000a 06D0     		beq	.L41
 375 000c 022B     		cmp	r3, #2
 376 000e 08D1     		bne	.L40
ARM GAS  C:\Users\30514\AppData\Local\Temp\cc83wd8q.s 			page 11


 194:Module/motor/dm_ctrl.c **** 	{
 195:Module/motor/dm_ctrl.c **** 		case 1:
 196:Module/motor/dm_ctrl.c **** 			 // ÂêëMotor1ÂèëÈÄÅÊéßÂà∂ÂëΩ‰ª§
 197:Module/motor/dm_ctrl.c **** 			dm4310_ctrl_send(&hcan1, &motor[Motor1]);
 198:Module/motor/dm_ctrl.c **** 			break;
 199:Module/motor/dm_ctrl.c **** 		case 2:
 200:Module/motor/dm_ctrl.c **** 			 // ÂêëMotor2ÂèëÈÄÅÊéßÂà∂ÂëΩ‰ª§
 201:Module/motor/dm_ctrl.c **** 			dm4310_ctrl_send(&hcan2, &motor[Motor2]);
 377              		.loc 1 201 4 view .LVU62
 378 0010 0549     		ldr	r1, .L45+4
 379 0012 0648     		ldr	r0, .L45+8
 380 0014 FFF7FEFF 		bl	dm4310_ctrl_send
 381              	.LVL12:
 202:Module/motor/dm_ctrl.c **** 			break;
 382              		.loc 1 202 4 view .LVU63
 203:Module/motor/dm_ctrl.c **** 		//case 3:
 204:Module/motor/dm_ctrl.c **** 			 // ÂêëMotor3ÂèëÈÄÅÊéßÂà∂ÂëΩ‰ª§
 205:Module/motor/dm_ctrl.c **** 		//	dm4310_ctrl_send(&hcan1, &motor[Motor3]);
 206:Module/motor/dm_ctrl.c **** 		//	break;
 207:Module/motor/dm_ctrl.c **** 	}
 208:Module/motor/dm_ctrl.c **** }
 383              		.loc 1 208 1 is_stmt 0 view .LVU64
 384 0018 03E0     		b	.L40
 385              	.L41:
 197:Module/motor/dm_ctrl.c **** 			break;
 386              		.loc 1 197 4 is_stmt 1 view .LVU65
 387 001a 0549     		ldr	r1, .L45+12
 388 001c 0548     		ldr	r0, .L45+16
 389 001e FFF7FEFF 		bl	dm4310_ctrl_send
 390              	.LVL13:
 198:Module/motor/dm_ctrl.c **** 		case 2:
 391              		.loc 1 198 4 view .LVU66
 392              	.L40:
 393              		.loc 1 208 1 is_stmt 0 view .LVU67
 394 0022 08BD     		pop	{r3, pc}
 395              	.L46:
 396              		.align	2
 397              	.L45:
 398 0024 00000000 		.word	motor_id
 399 0028 6C000000 		.word	motor+108
 400 002c 00000000 		.word	hcan2
 401 0030 00000000 		.word	motor
 402 0034 00000000 		.word	hcan1
 403              		.cfi_endproc
 404              	.LFE140:
 406              		.section	.text.can1_rx_callback,"ax",%progbits
 407              		.align	1
 408              		.global	can1_rx_callback
 409              		.syntax unified
 410              		.thumb
 411              		.thumb_func
 413              	can1_rx_callback:
 414              	.LFB141:
 209:Module/motor/dm_ctrl.c **** /**
 210:Module/motor/dm_ctrl.c **** ************************************************************************
 211:Module/motor/dm_ctrl.c **** * @brief:      	can1_rx_callback: CAN1Êé•Êî∂ÂõûË∞ÉÂáΩÊï∞
 212:Module/motor/dm_ctrl.c **** * @param:      	void
ARM GAS  C:\Users\30514\AppData\Local\Temp\cc83wd8q.s 			page 12


 213:Module/motor/dm_ctrl.c **** * @retval:     	void
 214:Module/motor/dm_ctrl.c **** * @details:    	Â§ÑÁêÜCAN1Êé•Êî∂‰∏≠Êñ≠ÂõûË∞ÉÔºåÊ†πÊçÆÊé•Êî∂Âà∞ÁöÑIDÂíåÊï∞ÊçÆÔºåÊâßË°åÁõ∏Â∫îÁöÑÂ§ÑÁê
 215:Module/motor/dm_ctrl.c **** *               ÂΩìÊé•Êî∂Âà∞ID‰∏∫0Êó∂ÔºåË∞ÉÁî®dm4310_fbdataÂáΩÊï∞Êõ¥Êñ∞MotorÁöÑÂèçÈ¶àÊï∞ÊçÆ„ÄÇ
 216:Module/motor/dm_ctrl.c **** ************************************************************************
 217:Module/motor/dm_ctrl.c **** **/
 218:Module/motor/dm_ctrl.c **** void can1_rx_callback(void)
 219:Module/motor/dm_ctrl.c **** {
 415              		.loc 1 219 1 is_stmt 1 view -0
 416              		.cfi_startproc
 417              		@ args = 0, pretend = 0, frame = 16
 418              		@ frame_needed = 0, uses_anonymous_args = 0
 419 0000 00B5     		push	{lr}
 420              	.LCFI7:
 421              		.cfi_def_cfa_offset 4
 422              		.cfi_offset 14, -4
 423 0002 85B0     		sub	sp, sp, #20
 424              	.LCFI8:
 425              		.cfi_def_cfa_offset 24
 220:Module/motor/dm_ctrl.c **** 	uint16_t rec_id;
 426              		.loc 1 220 2 view .LVU69
 221:Module/motor/dm_ctrl.c **** 	uint8_t rx_data[8] = {0};
 427              		.loc 1 221 2 view .LVU70
 428              		.loc 1 221 10 is_stmt 0 view .LVU71
 429 0004 0023     		movs	r3, #0
 430 0006 0193     		str	r3, [sp, #4]
 431 0008 0293     		str	r3, [sp, #8]
 222:Module/motor/dm_ctrl.c **** 	canx_receive_data(&hcan1, &rec_id, rx_data);
 432              		.loc 1 222 2 is_stmt 1 view .LVU72
 433 000a 01AA     		add	r2, sp, #4
 434 000c 0DF10E01 		add	r1, sp, #14
 435 0010 0C48     		ldr	r0, .L52
 436 0012 FFF7FEFF 		bl	canx_receive_data
 437              	.LVL14:
 223:Module/motor/dm_ctrl.c **** 	switch (rec_id)
 438              		.loc 1 223 2 view .LVU73
 439 0016 BDF80E30 		ldrh	r3, [sp, #14]
 440 001a 83B9     		cbnz	r3, .L47
 224:Module/motor/dm_ctrl.c **** 	{
 225:Module/motor/dm_ctrl.c ****  		case 0: 
 226:Module/motor/dm_ctrl.c **** 			{
 227:Module/motor/dm_ctrl.c **** 				switch ((rx_data[0])&0x0F)
 441              		.loc 1 227 5 view .LVU74
 442              		.loc 1 227 21 is_stmt 0 view .LVU75
 443 001c 9DF80430 		ldrb	r3, [sp, #4]	@ zero_extendqisi2
 444 0020 03F00F03 		and	r3, r3, #15
 445              		.loc 1 227 5 view .LVU76
 446 0024 0B2B     		cmp	r3, #11
 447 0026 06D0     		beq	.L49
 448 0028 0C2B     		cmp	r3, #12
 449 002a 08D1     		bne	.L47
 228:Module/motor/dm_ctrl.c **** 				{
 229:Module/motor/dm_ctrl.c **** 					case 11: dm4310_fbdata(&motor[Motor1], rx_data); break;
 230:Module/motor/dm_ctrl.c **** 					case 12: dm4310_fbdata(&motor[Motor2], rx_data); break;
 450              		.loc 1 230 15 is_stmt 1 view .LVU77
 451 002c 01A9     		add	r1, sp, #4
 452 002e 0648     		ldr	r0, .L52+4
 453 0030 FFF7FEFF 		bl	dm4310_fbdata
ARM GAS  C:\Users\30514\AppData\Local\Temp\cc83wd8q.s 			page 13


 454              	.LVL15:
 455              		.loc 1 230 55 discriminator 1 view .LVU78
 231:Module/motor/dm_ctrl.c **** 				}
 232:Module/motor/dm_ctrl.c **** 				
 233:Module/motor/dm_ctrl.c **** 			} break;
 234:Module/motor/dm_ctrl.c **** 	}
 235:Module/motor/dm_ctrl.c **** }
 456              		.loc 1 235 1 is_stmt 0 view .LVU79
 457 0034 03E0     		b	.L47
 458              	.L49:
 229:Module/motor/dm_ctrl.c **** 					case 12: dm4310_fbdata(&motor[Motor2], rx_data); break;
 459              		.loc 1 229 15 is_stmt 1 view .LVU80
 460 0036 01A9     		add	r1, sp, #4
 461 0038 0448     		ldr	r0, .L52+8
 462 003a FFF7FEFF 		bl	dm4310_fbdata
 463              	.LVL16:
 229:Module/motor/dm_ctrl.c **** 					case 12: dm4310_fbdata(&motor[Motor2], rx_data); break;
 464              		.loc 1 229 55 discriminator 1 view .LVU81
 465              	.L47:
 466              		.loc 1 235 1 is_stmt 0 view .LVU82
 467 003e 05B0     		add	sp, sp, #20
 468              	.LCFI9:
 469              		.cfi_def_cfa_offset 4
 470              		@ sp needed
 471 0040 5DF804FB 		ldr	pc, [sp], #4
 472              	.L53:
 473              		.align	2
 474              	.L52:
 475 0044 00000000 		.word	hcan1
 476 0048 6C000000 		.word	motor+108
 477 004c 00000000 		.word	motor
 478              		.cfi_endproc
 479              	.LFE141:
 481              		.global	motor_id
 482              		.section	.data.motor_id,"aw"
 485              	motor_id:
 486 0000 01       		.byte	1
 487              		.global	motor
 488              		.section	.bss.motor,"aw",%nobits
 489              		.align	2
 492              	motor:
 493 0000 00000000 		.space	216
 493      00000000 
 493      00000000 
 493      00000000 
 493      00000000 
 494              		.text
 495              	.Letext0:
 496              		.file 2 "D:/enviroment/msys2/mingw64/arm-none-eabi/include/machine/_default_types.h"
 497              		.file 3 "D:/enviroment/msys2/mingw64/arm-none-eabi/include/sys/_stdint.h"
 498              		.file 4 "Drivers/CMSIS/Device/ST/STM32F4xx/Include/stm32f446xx.h"
 499              		.file 5 "Drivers/CMSIS/Device/ST/STM32F4xx/Include/stm32f4xx.h"
 500              		.file 6 "D:/enviroment/msys2/mingw64/lib/gcc/arm-none-eabi/13.3.0/include/stddef.h"
 501              		.file 7 "Drivers/STM32F4xx_HAL_Driver/Inc/stm32f4xx_hal_can.h"
 502              		.file 8 "Core/Inc/can.h"
 503              		.file 9 "Bsp/bsp_can.h"
 504              		.file 10 "Module/motor/dm_drv.h"
ARM GAS  C:\Users\30514\AppData\Local\Temp\cc83wd8q.s 			page 14


 505              		.file 11 "Module/motor/dm_ctrl.h"
 506              		.file 12 "driver/can_driver.h"
 507              		.file 13 "D:/enviroment/msys2/mingw64/arm-none-eabi/include/string.h"
 508              		.file 14 "<built-in>"
ARM GAS  C:\Users\30514\AppData\Local\Temp\cc83wd8q.s 			page 15


DEFINED SYMBOLS
                            *ABS*:00000000 dm_ctrl.c
C:\Users\30514\AppData\Local\Temp\cc83wd8q.s:21     .text.dm4310_motor_init:00000000 $t
C:\Users\30514\AppData\Local\Temp\cc83wd8q.s:27     .text.dm4310_motor_init:00000000 dm4310_motor_init
C:\Users\30514\AppData\Local\Temp\cc83wd8q.s:70     .text.dm4310_motor_init:00000024 $d
C:\Users\30514\AppData\Local\Temp\cc83wd8q.s:492    .bss.motor:00000000 motor
C:\Users\30514\AppData\Local\Temp\cc83wd8q.s:75     .text.ctrl_enable:00000000 $t
C:\Users\30514\AppData\Local\Temp\cc83wd8q.s:81     .text.ctrl_enable:00000000 ctrl_enable
C:\Users\30514\AppData\Local\Temp\cc83wd8q.s:129    .text.ctrl_enable:00000030 $d
C:\Users\30514\AppData\Local\Temp\cc83wd8q.s:485    .data.motor_id:00000000 motor_id
C:\Users\30514\AppData\Local\Temp\cc83wd8q.s:137    .text.ctrl_disable:00000000 $t
C:\Users\30514\AppData\Local\Temp\cc83wd8q.s:143    .text.ctrl_disable:00000000 ctrl_disable
C:\Users\30514\AppData\Local\Temp\cc83wd8q.s:191    .text.ctrl_disable:00000030 $d
C:\Users\30514\AppData\Local\Temp\cc83wd8q.s:199    .text.ctrl_set:00000000 $t
C:\Users\30514\AppData\Local\Temp\cc83wd8q.s:205    .text.ctrl_set:00000000 ctrl_set
C:\Users\30514\AppData\Local\Temp\cc83wd8q.s:242    .text.ctrl_set:00000020 $d
C:\Users\30514\AppData\Local\Temp\cc83wd8q.s:249    .text.ctrl_clear_para:00000000 $t
C:\Users\30514\AppData\Local\Temp\cc83wd8q.s:255    .text.ctrl_clear_para:00000000 ctrl_clear_para
C:\Users\30514\AppData\Local\Temp\cc83wd8q.s:292    .text.ctrl_clear_para:00000020 $d
C:\Users\30514\AppData\Local\Temp\cc83wd8q.s:299    .text.ctrl_clear_err:00000000 $t
C:\Users\30514\AppData\Local\Temp\cc83wd8q.s:305    .text.ctrl_clear_err:00000000 ctrl_clear_err
C:\Users\30514\AppData\Local\Temp\cc83wd8q.s:344    .text.ctrl_clear_err:00000024 $d
C:\Users\30514\AppData\Local\Temp\cc83wd8q.s:353    .text.ctrl_send:00000000 $t
C:\Users\30514\AppData\Local\Temp\cc83wd8q.s:359    .text.ctrl_send:00000000 ctrl_send
C:\Users\30514\AppData\Local\Temp\cc83wd8q.s:398    .text.ctrl_send:00000024 $d
C:\Users\30514\AppData\Local\Temp\cc83wd8q.s:407    .text.can1_rx_callback:00000000 $t
C:\Users\30514\AppData\Local\Temp\cc83wd8q.s:413    .text.can1_rx_callback:00000000 can1_rx_callback
C:\Users\30514\AppData\Local\Temp\cc83wd8q.s:475    .text.can1_rx_callback:00000044 $d
C:\Users\30514\AppData\Local\Temp\cc83wd8q.s:489    .bss.motor:00000000 $d

UNDEFINED SYMBOLS
memset
dm4310_enable
hcan2
hcan1
dm4310_disable
dm4310_set
dm4310_clear_para
dm4310_clear_err
dm4310_ctrl_send
canx_receive_data
dm4310_fbdata
