ARM GAS  C:\Users\30514\AppData\Local\Temp\ccxdXenu.s 			page 1


   1              		.cpu cortex-m4
   2              		.arch armv7e-m
   3              		.fpu fpv4-sp-d16
   4              		.eabi_attribute 27, 1
   5              		.eabi_attribute 28, 1
   6              		.eabi_attribute 20, 1
   7              		.eabi_attribute 21, 1
   8              		.eabi_attribute 23, 3
   9              		.eabi_attribute 24, 1
  10              		.eabi_attribute 25, 1
  11              		.eabi_attribute 26, 1
  12              		.eabi_attribute 30, 1
  13              		.eabi_attribute 34, 1
  14              		.eabi_attribute 18, 4
  15              		.file	"remote_control.c"
  16              		.text
  17              	.Ltext0:
  18              		.cfi_sections	.debug_frame
  19              		.file 1 "Module/remote_control/remote_control.c"
  20              		.section	.text.RC_init,"ax",%progbits
  21              		.align	1
  22              		.global	RC_init
  23              		.syntax unified
  24              		.thumb
  25              		.thumb_func
  27              	RC_init:
  28              	.LVL0:
  29              	.LFB134:
   1:Module/remote_control/remote_control.c **** #include "string.h"
   2:Module/remote_control/remote_control.c **** #include "stdlib.h"
   3:Module/remote_control/remote_control.c **** #include "Remote_Control.h"
   4:Module/remote_control/remote_control.c **** #include "main.h"
   5:Module/remote_control/remote_control.c **** #include "stm32f4xx.h"
   6:Module/remote_control/remote_control.c **** #include "usart.h"
   7:Module/remote_control/remote_control.c **** 
   8:Module/remote_control/remote_control.c **** static uint8_t sbus_rx_buf[2][SBUS_RX_BUF_NUM];//åŒç¼“å†²åŒºåˆå§‹åŒ–ï¼Œ16*2=32
   9:Module/remote_control/remote_control.c **** uint16_t channels[18] = {0};  //åˆå§‹åŒ–å„é€šé“
  10:Module/remote_control/remote_control.c **** RC_ctrl_t rc_ctrl;//ç”¨äºŽå­˜å‚¨å¤§ç–†é¥æŽ§å™¨çš„æŽ§åˆ¶æ•°æ®ç»“æž„ä½“
  11:Module/remote_control/remote_control.c **** rc_info_t rc_ctrl1;//ç”¨äºŽå­˜å‚¨å¤©åœ°é£žé¥æŽ§å™¨çš„æ•°æ®ç»“æž„ä½“
  12:Module/remote_control/remote_control.c **** 
  13:Module/remote_control/remote_control.c **** //é¥æŽ§åˆå§‹åŒ–å‡½æ•°
  14:Module/remote_control/remote_control.c **** void RC_init(uint8_t *rx1_buf, uint8_t *rx2_buf, uint16_t dma_buf_num)
  15:Module/remote_control/remote_control.c **** {
  30              		.loc 1 15 1 view -0
  31              		.cfi_startproc
  32              		@ args = 0, pretend = 0, frame = 0
  33              		@ frame_needed = 0, uses_anonymous_args = 0
  34              		@ link register save eliminated.
  35              		.loc 1 15 1 is_stmt 0 view .LVU1
  36 0000 10B4     		push	{r4}
  37              	.LCFI0:
  38              		.cfi_def_cfa_offset 4
  39              		.cfi_offset 4, -4
  16:Module/remote_control/remote_control.c ****     //enable the DMA transfer for the receiver request
  17:Module/remote_control/remote_control.c ****     //è®¾ç½®USART3æŽ§åˆ¶å¯„å­˜å™¨çš„DMARä½ï¼Œä½¿ä¸²å£åœ¨æŽ¥æ”¶åˆ°æ•°æ®è‡ªåŠ¨è§¦å‘DMAè¯·æ±‚
  18:Module/remote_control/remote_control.c ****     SET_BIT(huart3.Instance->CR3, USART_CR3_DMAR);
  40              		.loc 1 18 5 is_stmt 1 view .LVU2
ARM GAS  C:\Users\30514\AppData\Local\Temp\ccxdXenu.s 			page 2


  41 0002 164B     		ldr	r3, .L5
  42 0004 1B68     		ldr	r3, [r3]
  43 0006 5C69     		ldr	r4, [r3, #20]
  44 0008 44F04004 		orr	r4, r4, #64
  45 000c 5C61     		str	r4, [r3, #20]
  19:Module/remote_control/remote_control.c **** 
  20:Module/remote_control/remote_control.c ****     //å¯ç”¨ä¸²å£ç©ºé—²ä¸­æ–­ï¼šæ•°æ®æµï¼šå­—èŠ‚1 â†’ å­—èŠ‚2 â†’ ... â†’ å­—èŠ‚N â†’ æ€»çº¿ç©ºé
  21:Module/remote_control/remote_control.c ****     //äº‹ä»¶é“¾ï¼šDMAè¿žç»­æ¬è¿ â†’ æ€»çº¿ç©ºé—² â†’ è§¦å‘ä¸­æ–­ â†’ å¤„ç†æ•°æ®
  22:Module/remote_control/remote_control.c ****     __HAL_UART_ENABLE_IT(&huart3, UART_IT_IDLE);
  46              		.loc 1 22 5 view .LVU3
  47 000e DC68     		ldr	r4, [r3, #12]
  48 0010 44F01004 		orr	r4, r4, #16
  49 0014 DC60     		str	r4, [r3, #12]
  23:Module/remote_control/remote_control.c **** 
  24:Module/remote_control/remote_control.c ****     //disable DMA
  25:Module/remote_control/remote_control.c ****     //å®‰å…¨ç¦ç”¨DMA
  26:Module/remote_control/remote_control.c ****     __HAL_DMA_DISABLE(&hdma_usart3_rx);
  50              		.loc 1 26 5 view .LVU4
  51 0016 124B     		ldr	r3, .L5+4
  52 0018 1C68     		ldr	r4, [r3]
  53 001a 2368     		ldr	r3, [r4]
  54 001c 23F00103 		bic	r3, r3, #1
  55 0020 2360     		str	r3, [r4]
  27:Module/remote_control/remote_control.c ****     while(hdma_usart3_rx.Instance->CR & DMA_SxCR_EN)
  56              		.loc 1 27 5 view .LVU5
  57              		.loc 1 27 10 is_stmt 0 view .LVU6
  58 0022 03E0     		b	.L2
  59              	.L3:
  28:Module/remote_control/remote_control.c ****     {
  29:Module/remote_control/remote_control.c ****         __HAL_DMA_DISABLE(&hdma_usart3_rx);
  60              		.loc 1 29 9 is_stmt 1 view .LVU7
  61 0024 1C68     		ldr	r4, [r3]
  62 0026 24F00104 		bic	r4, r4, #1
  63 002a 1C60     		str	r4, [r3]
  64              	.L2:
  27:Module/remote_control/remote_control.c ****     while(hdma_usart3_rx.Instance->CR & DMA_SxCR_EN)
  65              		.loc 1 27 11 view .LVU8
  27:Module/remote_control/remote_control.c ****     while(hdma_usart3_rx.Instance->CR & DMA_SxCR_EN)
  66              		.loc 1 27 25 is_stmt 0 view .LVU9
  67 002c 0C4B     		ldr	r3, .L5+4
  68 002e 1B68     		ldr	r3, [r3]
  27:Module/remote_control/remote_control.c ****     while(hdma_usart3_rx.Instance->CR & DMA_SxCR_EN)
  69              		.loc 1 27 34 view .LVU10
  70 0030 1C68     		ldr	r4, [r3]
  27:Module/remote_control/remote_control.c ****     while(hdma_usart3_rx.Instance->CR & DMA_SxCR_EN)
  71              		.loc 1 27 11 view .LVU11
  72 0032 14F0010F 		tst	r4, #1
  73 0036 F5D1     		bne	.L3
  30:Module/remote_control/remote_control.c ****     }
  31:Module/remote_control/remote_control.c **** 
  32:Module/remote_control/remote_control.c ****     hdma_usart3_rx.Instance->PAR = (uint32_t) & (USART3->DR);
  74              		.loc 1 32 5 is_stmt 1 view .LVU12
  75              		.loc 1 32 34 is_stmt 0 view .LVU13
  76 0038 0A4C     		ldr	r4, .L5+8
  77 003a 9C60     		str	r4, [r3, #8]
  33:Module/remote_control/remote_control.c ****     //memory buffer 1
  34:Module/remote_control/remote_control.c ****     //å†…å­˜ç¼“å†²åœ°å€1
ARM GAS  C:\Users\30514\AppData\Local\Temp\ccxdXenu.s 			page 3


  35:Module/remote_control/remote_control.c ****     hdma_usart3_rx.Instance->M0AR = (uint32_t)(rx1_buf);
  78              		.loc 1 35 5 is_stmt 1 view .LVU14
  79              		.loc 1 35 35 is_stmt 0 view .LVU15
  80 003c D860     		str	r0, [r3, #12]
  36:Module/remote_control/remote_control.c ****     //memory buffer 2
  37:Module/remote_control/remote_control.c ****     //å†…å­˜ç¼“å†²åœ°å€2
  38:Module/remote_control/remote_control.c ****     hdma_usart3_rx.Instance->M1AR = (uint32_t)(rx2_buf);
  81              		.loc 1 38 5 is_stmt 1 view .LVU16
  82              		.loc 1 38 35 is_stmt 0 view .LVU17
  83 003e 1961     		str	r1, [r3, #16]
  39:Module/remote_control/remote_control.c ****     //data length
  40:Module/remote_control/remote_control.c ****     //æ•°æ®é•¿åº¦
  41:Module/remote_control/remote_control.c ****     hdma_usart3_rx.Instance->NDTR = dma_buf_num;
  84              		.loc 1 41 5 is_stmt 1 view .LVU18
  85              		.loc 1 41 35 is_stmt 0 view .LVU19
  86 0040 5A60     		str	r2, [r3, #4]
  42:Module/remote_control/remote_control.c ****     //enable double memory buffer
  43:Module/remote_control/remote_control.c ****     //å¯ç”¨åŒç¼“å†²æ¨¡å¼
  44:Module/remote_control/remote_control.c ****     SET_BIT(hdma_usart3_rx.Instance->CR, DMA_SxCR_DBM);
  87              		.loc 1 44 5 is_stmt 1 view .LVU20
  88 0042 1A68     		ldr	r2, [r3]
  89              	.LVL1:
  90              		.loc 1 44 5 is_stmt 0 view .LVU21
  91 0044 42F48022 		orr	r2, r2, #262144
  92 0048 1A60     		str	r2, [r3]
  45:Module/remote_control/remote_control.c **** 
  46:Module/remote_control/remote_control.c ****     //enable DMA
  47:Module/remote_control/remote_control.c ****     //ä½¿èƒ½DMA
  48:Module/remote_control/remote_control.c ****     __HAL_DMA_ENABLE(&hdma_usart3_rx);
  93              		.loc 1 48 5 is_stmt 1 view .LVU22
  94 004a 054B     		ldr	r3, .L5+4
  95 004c 1A68     		ldr	r2, [r3]
  96 004e 1368     		ldr	r3, [r2]
  97 0050 43F00103 		orr	r3, r3, #1
  98 0054 1360     		str	r3, [r2]
  49:Module/remote_control/remote_control.c **** 
  50:Module/remote_control/remote_control.c **** }
  99              		.loc 1 50 1 is_stmt 0 view .LVU23
 100 0056 5DF8044B 		ldr	r4, [sp], #4
 101              	.LCFI1:
 102              		.cfi_restore 4
 103              		.cfi_def_cfa_offset 0
 104 005a 7047     		bx	lr
 105              	.L6:
 106              		.align	2
 107              	.L5:
 108 005c 00000000 		.word	huart3
 109 0060 00000000 		.word	hdma_usart3_rx
 110 0064 04480040 		.word	1073760260
 111              		.cfi_endproc
 112              	.LFE134:
 114              		.section	.text.remote_control_init,"ax",%progbits
 115              		.align	1
 116              		.global	remote_control_init
 117              		.syntax unified
 118              		.thumb
 119              		.thumb_func
ARM GAS  C:\Users\30514\AppData\Local\Temp\ccxdXenu.s 			page 4


 121              	remote_control_init:
 122              	.LFB135:
  51:Module/remote_control/remote_control.c **** 
  52:Module/remote_control/remote_control.c **** // é¥æŽ§åˆå§‹åŒ–å‡½æ•°,å»ºç«‹åŒç¼“å†²æœºåˆ¶ï¼Œå¯ç”¨USART3ç©ºé—²ç»ˆç«¯ï¼Œé…ç½®DMAä¸ºå¾ªçŽ¯åŒç¼
  53:Module/remote_control/remote_control.c **** void remote_control_init(void)
  54:Module/remote_control/remote_control.c **** {
 123              		.loc 1 54 1 is_stmt 1 view -0
 124              		.cfi_startproc
 125              		@ args = 0, pretend = 0, frame = 0
 126              		@ frame_needed = 0, uses_anonymous_args = 0
 127 0000 08B5     		push	{r3, lr}
 128              	.LCFI2:
 129              		.cfi_def_cfa_offset 8
 130              		.cfi_offset 3, -8
 131              		.cfi_offset 14, -4
  55:Module/remote_control/remote_control.c ****     RC_init(sbus_rx_buf[0], sbus_rx_buf[1], SBUS_RX_BUF_NUM);
 132              		.loc 1 55 5 view .LVU25
 133 0002 0349     		ldr	r1, .L9
 134 0004 3222     		movs	r2, #50
 135 0006 A1F13200 		sub	r0, r1, #50
 136 000a FFF7FEFF 		bl	RC_init
 137              	.LVL2:
  56:Module/remote_control/remote_control.c **** }
 138              		.loc 1 56 1 is_stmt 0 view .LVU26
 139 000e 08BD     		pop	{r3, pc}
 140              	.L10:
 141              		.align	2
 142              	.L9:
 143 0010 32000000 		.word	sbus_rx_buf+50
 144              		.cfi_endproc
 145              	.LFE135:
 147              		.section	.text.get_remote_control_point,"ax",%progbits
 148              		.align	1
 149              		.global	get_remote_control_point
 150              		.syntax unified
 151              		.thumb
 152              		.thumb_func
 154              	get_remote_control_point:
 155              	.LVL3:
 156              	.LFB136:
  57:Module/remote_control/remote_control.c **** 
  58:Module/remote_control/remote_control.c **** //æ•°æ®èŽ·å–æŽ¥å£
  59:Module/remote_control/remote_control.c **** RC_ctrl_t get_remote_control_point(void)
  60:Module/remote_control/remote_control.c **** {
 157              		.loc 1 60 1 is_stmt 1 view -0
 158              		.cfi_startproc
 159              		@ args = 0, pretend = 0, frame = 24
 160              		@ frame_needed = 0, uses_anonymous_args = 0
 161              		.loc 1 60 1 is_stmt 0 view .LVU28
 162 0000 10B5     		push	{r4, lr}
 163              	.LCFI3:
 164              		.cfi_def_cfa_offset 8
 165              		.cfi_offset 4, -8
 166              		.cfi_offset 14, -4
 167 0002 86B0     		sub	sp, sp, #24
 168              	.LCFI4:
 169              		.cfi_def_cfa_offset 32
ARM GAS  C:\Users\30514\AppData\Local\Temp\ccxdXenu.s 			page 5


 170 0004 8446     		mov	ip, r0
  61:Module/remote_control/remote_control.c ****     RC_ctrl_t copy;
 171              		.loc 1 61 5 is_stmt 1 view .LVU29
  62:Module/remote_control/remote_control.c ****     __disable_irq();//é˜²æ­¢æ‹·è´æœŸé—´æ•°æ®è¢«ä¿®æ”¹
 172              		.loc 1 62 5 view .LVU30
 173              	.LBB6:
 174              	.LBI6:
 175              		.file 2 "Drivers/CMSIS/Include/cmsis_gcc.h"
   1:Drivers/CMSIS/Include/cmsis_gcc.h **** /**************************************************************************//**
   2:Drivers/CMSIS/Include/cmsis_gcc.h ****  * @file     cmsis_gcc.h
   3:Drivers/CMSIS/Include/cmsis_gcc.h ****  * @brief    CMSIS compiler GCC header file
   4:Drivers/CMSIS/Include/cmsis_gcc.h ****  * @version  V5.4.1
   5:Drivers/CMSIS/Include/cmsis_gcc.h ****  * @date     27. May 2021
   6:Drivers/CMSIS/Include/cmsis_gcc.h ****  ******************************************************************************/
   7:Drivers/CMSIS/Include/cmsis_gcc.h **** /*
   8:Drivers/CMSIS/Include/cmsis_gcc.h ****  * Copyright (c) 2009-2021 Arm Limited. All rights reserved.
   9:Drivers/CMSIS/Include/cmsis_gcc.h ****  *
  10:Drivers/CMSIS/Include/cmsis_gcc.h ****  * SPDX-License-Identifier: Apache-2.0
  11:Drivers/CMSIS/Include/cmsis_gcc.h ****  *
  12:Drivers/CMSIS/Include/cmsis_gcc.h ****  * Licensed under the Apache License, Version 2.0 (the License); you may
  13:Drivers/CMSIS/Include/cmsis_gcc.h ****  * not use this file except in compliance with the License.
  14:Drivers/CMSIS/Include/cmsis_gcc.h ****  * You may obtain a copy of the License at
  15:Drivers/CMSIS/Include/cmsis_gcc.h ****  *
  16:Drivers/CMSIS/Include/cmsis_gcc.h ****  * www.apache.org/licenses/LICENSE-2.0
  17:Drivers/CMSIS/Include/cmsis_gcc.h ****  *
  18:Drivers/CMSIS/Include/cmsis_gcc.h ****  * Unless required by applicable law or agreed to in writing, software
  19:Drivers/CMSIS/Include/cmsis_gcc.h ****  * distributed under the License is distributed on an AS IS BASIS, WITHOUT
  20:Drivers/CMSIS/Include/cmsis_gcc.h ****  * WARRANTIES OR CONDITIONS OF ANY KIND, either express or implied.
  21:Drivers/CMSIS/Include/cmsis_gcc.h ****  * See the License for the specific language governing permissions and
  22:Drivers/CMSIS/Include/cmsis_gcc.h ****  * limitations under the License.
  23:Drivers/CMSIS/Include/cmsis_gcc.h ****  */
  24:Drivers/CMSIS/Include/cmsis_gcc.h **** 
  25:Drivers/CMSIS/Include/cmsis_gcc.h **** #ifndef __CMSIS_GCC_H
  26:Drivers/CMSIS/Include/cmsis_gcc.h **** #define __CMSIS_GCC_H
  27:Drivers/CMSIS/Include/cmsis_gcc.h **** 
  28:Drivers/CMSIS/Include/cmsis_gcc.h **** /* ignore some GCC warnings */
  29:Drivers/CMSIS/Include/cmsis_gcc.h **** #pragma GCC diagnostic push
  30:Drivers/CMSIS/Include/cmsis_gcc.h **** #pragma GCC diagnostic ignored "-Wsign-conversion"
  31:Drivers/CMSIS/Include/cmsis_gcc.h **** #pragma GCC diagnostic ignored "-Wconversion"
  32:Drivers/CMSIS/Include/cmsis_gcc.h **** #pragma GCC diagnostic ignored "-Wunused-parameter"
  33:Drivers/CMSIS/Include/cmsis_gcc.h **** 
  34:Drivers/CMSIS/Include/cmsis_gcc.h **** /* Fallback for __has_builtin */
  35:Drivers/CMSIS/Include/cmsis_gcc.h **** #ifndef __has_builtin
  36:Drivers/CMSIS/Include/cmsis_gcc.h ****   #define __has_builtin(x) (0)
  37:Drivers/CMSIS/Include/cmsis_gcc.h **** #endif
  38:Drivers/CMSIS/Include/cmsis_gcc.h **** 
  39:Drivers/CMSIS/Include/cmsis_gcc.h **** /* CMSIS compiler specific defines */
  40:Drivers/CMSIS/Include/cmsis_gcc.h **** #ifndef   __ASM
  41:Drivers/CMSIS/Include/cmsis_gcc.h ****   #define __ASM                                  __asm
  42:Drivers/CMSIS/Include/cmsis_gcc.h **** #endif
  43:Drivers/CMSIS/Include/cmsis_gcc.h **** #ifndef   __INLINE
  44:Drivers/CMSIS/Include/cmsis_gcc.h ****   #define __INLINE                               inline
  45:Drivers/CMSIS/Include/cmsis_gcc.h **** #endif
  46:Drivers/CMSIS/Include/cmsis_gcc.h **** #ifndef   __STATIC_INLINE
  47:Drivers/CMSIS/Include/cmsis_gcc.h ****   #define __STATIC_INLINE                        static inline
  48:Drivers/CMSIS/Include/cmsis_gcc.h **** #endif
  49:Drivers/CMSIS/Include/cmsis_gcc.h **** #ifndef   __STATIC_FORCEINLINE
ARM GAS  C:\Users\30514\AppData\Local\Temp\ccxdXenu.s 			page 6


  50:Drivers/CMSIS/Include/cmsis_gcc.h ****   #define __STATIC_FORCEINLINE                   __attribute__((always_inline)) static inline
  51:Drivers/CMSIS/Include/cmsis_gcc.h **** #endif
  52:Drivers/CMSIS/Include/cmsis_gcc.h **** #ifndef   __NO_RETURN
  53:Drivers/CMSIS/Include/cmsis_gcc.h ****   #define __NO_RETURN                            __attribute__((__noreturn__))
  54:Drivers/CMSIS/Include/cmsis_gcc.h **** #endif
  55:Drivers/CMSIS/Include/cmsis_gcc.h **** #ifndef   __USED
  56:Drivers/CMSIS/Include/cmsis_gcc.h ****   #define __USED                                 __attribute__((used))
  57:Drivers/CMSIS/Include/cmsis_gcc.h **** #endif
  58:Drivers/CMSIS/Include/cmsis_gcc.h **** #ifndef   __WEAK
  59:Drivers/CMSIS/Include/cmsis_gcc.h ****   #define __WEAK                                 __attribute__((weak))
  60:Drivers/CMSIS/Include/cmsis_gcc.h **** #endif
  61:Drivers/CMSIS/Include/cmsis_gcc.h **** #ifndef   __PACKED
  62:Drivers/CMSIS/Include/cmsis_gcc.h ****   #define __PACKED                               __attribute__((packed, aligned(1)))
  63:Drivers/CMSIS/Include/cmsis_gcc.h **** #endif
  64:Drivers/CMSIS/Include/cmsis_gcc.h **** #ifndef   __PACKED_STRUCT
  65:Drivers/CMSIS/Include/cmsis_gcc.h ****   #define __PACKED_STRUCT                        struct __attribute__((packed, aligned(1)))
  66:Drivers/CMSIS/Include/cmsis_gcc.h **** #endif
  67:Drivers/CMSIS/Include/cmsis_gcc.h **** #ifndef   __PACKED_UNION
  68:Drivers/CMSIS/Include/cmsis_gcc.h ****   #define __PACKED_UNION                         union __attribute__((packed, aligned(1)))
  69:Drivers/CMSIS/Include/cmsis_gcc.h **** #endif
  70:Drivers/CMSIS/Include/cmsis_gcc.h **** #ifndef   __UNALIGNED_UINT32        /* deprecated */
  71:Drivers/CMSIS/Include/cmsis_gcc.h ****   #pragma GCC diagnostic push
  72:Drivers/CMSIS/Include/cmsis_gcc.h ****   #pragma GCC diagnostic ignored "-Wpacked"
  73:Drivers/CMSIS/Include/cmsis_gcc.h ****   #pragma GCC diagnostic ignored "-Wattributes"
  74:Drivers/CMSIS/Include/cmsis_gcc.h ****   struct __attribute__((packed)) T_UINT32 { uint32_t v; };
  75:Drivers/CMSIS/Include/cmsis_gcc.h ****   #pragma GCC diagnostic pop
  76:Drivers/CMSIS/Include/cmsis_gcc.h ****   #define __UNALIGNED_UINT32(x)                  (((struct T_UINT32 *)(x))->v)
  77:Drivers/CMSIS/Include/cmsis_gcc.h **** #endif
  78:Drivers/CMSIS/Include/cmsis_gcc.h **** #ifndef   __UNALIGNED_UINT16_WRITE
  79:Drivers/CMSIS/Include/cmsis_gcc.h ****   #pragma GCC diagnostic push
  80:Drivers/CMSIS/Include/cmsis_gcc.h ****   #pragma GCC diagnostic ignored "-Wpacked"
  81:Drivers/CMSIS/Include/cmsis_gcc.h ****   #pragma GCC diagnostic ignored "-Wattributes"
  82:Drivers/CMSIS/Include/cmsis_gcc.h ****   __PACKED_STRUCT T_UINT16_WRITE { uint16_t v; };
  83:Drivers/CMSIS/Include/cmsis_gcc.h ****   #pragma GCC diagnostic pop
  84:Drivers/CMSIS/Include/cmsis_gcc.h ****   #define __UNALIGNED_UINT16_WRITE(addr, val)    (void)((((struct T_UINT16_WRITE *)(void *)(addr))-
  85:Drivers/CMSIS/Include/cmsis_gcc.h **** #endif
  86:Drivers/CMSIS/Include/cmsis_gcc.h **** #ifndef   __UNALIGNED_UINT16_READ
  87:Drivers/CMSIS/Include/cmsis_gcc.h ****   #pragma GCC diagnostic push
  88:Drivers/CMSIS/Include/cmsis_gcc.h ****   #pragma GCC diagnostic ignored "-Wpacked"
  89:Drivers/CMSIS/Include/cmsis_gcc.h ****   #pragma GCC diagnostic ignored "-Wattributes"
  90:Drivers/CMSIS/Include/cmsis_gcc.h ****   __PACKED_STRUCT T_UINT16_READ { uint16_t v; };
  91:Drivers/CMSIS/Include/cmsis_gcc.h ****   #pragma GCC diagnostic pop
  92:Drivers/CMSIS/Include/cmsis_gcc.h ****   #define __UNALIGNED_UINT16_READ(addr)          (((const struct T_UINT16_READ *)(const void *)(add
  93:Drivers/CMSIS/Include/cmsis_gcc.h **** #endif
  94:Drivers/CMSIS/Include/cmsis_gcc.h **** #ifndef   __UNALIGNED_UINT32_WRITE
  95:Drivers/CMSIS/Include/cmsis_gcc.h ****   #pragma GCC diagnostic push
  96:Drivers/CMSIS/Include/cmsis_gcc.h ****   #pragma GCC diagnostic ignored "-Wpacked"
  97:Drivers/CMSIS/Include/cmsis_gcc.h ****   #pragma GCC diagnostic ignored "-Wattributes"
  98:Drivers/CMSIS/Include/cmsis_gcc.h ****   __PACKED_STRUCT T_UINT32_WRITE { uint32_t v; };
  99:Drivers/CMSIS/Include/cmsis_gcc.h ****   #pragma GCC diagnostic pop
 100:Drivers/CMSIS/Include/cmsis_gcc.h ****   #define __UNALIGNED_UINT32_WRITE(addr, val)    (void)((((struct T_UINT32_WRITE *)(void *)(addr))-
 101:Drivers/CMSIS/Include/cmsis_gcc.h **** #endif
 102:Drivers/CMSIS/Include/cmsis_gcc.h **** #ifndef   __UNALIGNED_UINT32_READ
 103:Drivers/CMSIS/Include/cmsis_gcc.h ****   #pragma GCC diagnostic push
 104:Drivers/CMSIS/Include/cmsis_gcc.h ****   #pragma GCC diagnostic ignored "-Wpacked"
 105:Drivers/CMSIS/Include/cmsis_gcc.h ****   #pragma GCC diagnostic ignored "-Wattributes"
 106:Drivers/CMSIS/Include/cmsis_gcc.h ****   __PACKED_STRUCT T_UINT32_READ { uint32_t v; };
ARM GAS  C:\Users\30514\AppData\Local\Temp\ccxdXenu.s 			page 7


 107:Drivers/CMSIS/Include/cmsis_gcc.h ****   #pragma GCC diagnostic pop
 108:Drivers/CMSIS/Include/cmsis_gcc.h ****   #define __UNALIGNED_UINT32_READ(addr)          (((const struct T_UINT32_READ *)(const void *)(add
 109:Drivers/CMSIS/Include/cmsis_gcc.h **** #endif
 110:Drivers/CMSIS/Include/cmsis_gcc.h **** #ifndef   __ALIGNED
 111:Drivers/CMSIS/Include/cmsis_gcc.h ****   #define __ALIGNED(x)                           __attribute__((aligned(x)))
 112:Drivers/CMSIS/Include/cmsis_gcc.h **** #endif
 113:Drivers/CMSIS/Include/cmsis_gcc.h **** #ifndef   __RESTRICT
 114:Drivers/CMSIS/Include/cmsis_gcc.h ****   #define __RESTRICT                             __restrict
 115:Drivers/CMSIS/Include/cmsis_gcc.h **** #endif
 116:Drivers/CMSIS/Include/cmsis_gcc.h **** #ifndef   __COMPILER_BARRIER
 117:Drivers/CMSIS/Include/cmsis_gcc.h ****   #define __COMPILER_BARRIER()                   __ASM volatile("":::"memory")
 118:Drivers/CMSIS/Include/cmsis_gcc.h **** #endif
 119:Drivers/CMSIS/Include/cmsis_gcc.h **** 
 120:Drivers/CMSIS/Include/cmsis_gcc.h **** /* #########################  Startup and Lowlevel Init  ######################## */
 121:Drivers/CMSIS/Include/cmsis_gcc.h **** 
 122:Drivers/CMSIS/Include/cmsis_gcc.h **** #ifndef __PROGRAM_START
 123:Drivers/CMSIS/Include/cmsis_gcc.h **** 
 124:Drivers/CMSIS/Include/cmsis_gcc.h **** /**
 125:Drivers/CMSIS/Include/cmsis_gcc.h ****   \brief   Initializes data and bss sections
 126:Drivers/CMSIS/Include/cmsis_gcc.h ****   \details This default implementations initialized all data and additional bss
 127:Drivers/CMSIS/Include/cmsis_gcc.h ****            sections relying on .copy.table and .zero.table specified properly
 128:Drivers/CMSIS/Include/cmsis_gcc.h ****            in the used linker script.
 129:Drivers/CMSIS/Include/cmsis_gcc.h **** 
 130:Drivers/CMSIS/Include/cmsis_gcc.h ****  */
 131:Drivers/CMSIS/Include/cmsis_gcc.h **** __STATIC_FORCEINLINE __NO_RETURN void __cmsis_start(void)
 132:Drivers/CMSIS/Include/cmsis_gcc.h **** {
 133:Drivers/CMSIS/Include/cmsis_gcc.h ****   extern void _start(void) __NO_RETURN;
 134:Drivers/CMSIS/Include/cmsis_gcc.h **** 
 135:Drivers/CMSIS/Include/cmsis_gcc.h ****   typedef struct {
 136:Drivers/CMSIS/Include/cmsis_gcc.h ****     uint32_t const* src;
 137:Drivers/CMSIS/Include/cmsis_gcc.h ****     uint32_t* dest;
 138:Drivers/CMSIS/Include/cmsis_gcc.h ****     uint32_t  wlen;
 139:Drivers/CMSIS/Include/cmsis_gcc.h ****   } __copy_table_t;
 140:Drivers/CMSIS/Include/cmsis_gcc.h **** 
 141:Drivers/CMSIS/Include/cmsis_gcc.h ****   typedef struct {
 142:Drivers/CMSIS/Include/cmsis_gcc.h ****     uint32_t* dest;
 143:Drivers/CMSIS/Include/cmsis_gcc.h ****     uint32_t  wlen;
 144:Drivers/CMSIS/Include/cmsis_gcc.h ****   } __zero_table_t;
 145:Drivers/CMSIS/Include/cmsis_gcc.h **** 
 146:Drivers/CMSIS/Include/cmsis_gcc.h ****   extern const __copy_table_t __copy_table_start__;
 147:Drivers/CMSIS/Include/cmsis_gcc.h ****   extern const __copy_table_t __copy_table_end__;
 148:Drivers/CMSIS/Include/cmsis_gcc.h ****   extern const __zero_table_t __zero_table_start__;
 149:Drivers/CMSIS/Include/cmsis_gcc.h ****   extern const __zero_table_t __zero_table_end__;
 150:Drivers/CMSIS/Include/cmsis_gcc.h **** 
 151:Drivers/CMSIS/Include/cmsis_gcc.h ****   for (__copy_table_t const* pTable = &__copy_table_start__; pTable < &__copy_table_end__; ++pTable
 152:Drivers/CMSIS/Include/cmsis_gcc.h ****     for(uint32_t i=0u; i<pTable->wlen; ++i) {
 153:Drivers/CMSIS/Include/cmsis_gcc.h ****       pTable->dest[i] = pTable->src[i];
 154:Drivers/CMSIS/Include/cmsis_gcc.h ****     }
 155:Drivers/CMSIS/Include/cmsis_gcc.h ****   }
 156:Drivers/CMSIS/Include/cmsis_gcc.h **** 
 157:Drivers/CMSIS/Include/cmsis_gcc.h ****   for (__zero_table_t const* pTable = &__zero_table_start__; pTable < &__zero_table_end__; ++pTable
 158:Drivers/CMSIS/Include/cmsis_gcc.h ****     for(uint32_t i=0u; i<pTable->wlen; ++i) {
 159:Drivers/CMSIS/Include/cmsis_gcc.h ****       pTable->dest[i] = 0u;
 160:Drivers/CMSIS/Include/cmsis_gcc.h ****     }
 161:Drivers/CMSIS/Include/cmsis_gcc.h ****   }
 162:Drivers/CMSIS/Include/cmsis_gcc.h **** 
 163:Drivers/CMSIS/Include/cmsis_gcc.h ****   _start();
ARM GAS  C:\Users\30514\AppData\Local\Temp\ccxdXenu.s 			page 8


 164:Drivers/CMSIS/Include/cmsis_gcc.h **** }
 165:Drivers/CMSIS/Include/cmsis_gcc.h **** 
 166:Drivers/CMSIS/Include/cmsis_gcc.h **** #define __PROGRAM_START           __cmsis_start
 167:Drivers/CMSIS/Include/cmsis_gcc.h **** #endif
 168:Drivers/CMSIS/Include/cmsis_gcc.h **** 
 169:Drivers/CMSIS/Include/cmsis_gcc.h **** #ifndef __INITIAL_SP
 170:Drivers/CMSIS/Include/cmsis_gcc.h **** #define __INITIAL_SP              __StackTop
 171:Drivers/CMSIS/Include/cmsis_gcc.h **** #endif
 172:Drivers/CMSIS/Include/cmsis_gcc.h **** 
 173:Drivers/CMSIS/Include/cmsis_gcc.h **** #ifndef __STACK_LIMIT
 174:Drivers/CMSIS/Include/cmsis_gcc.h **** #define __STACK_LIMIT             __StackLimit
 175:Drivers/CMSIS/Include/cmsis_gcc.h **** #endif
 176:Drivers/CMSIS/Include/cmsis_gcc.h **** 
 177:Drivers/CMSIS/Include/cmsis_gcc.h **** #ifndef __VECTOR_TABLE
 178:Drivers/CMSIS/Include/cmsis_gcc.h **** #define __VECTOR_TABLE            __Vectors
 179:Drivers/CMSIS/Include/cmsis_gcc.h **** #endif
 180:Drivers/CMSIS/Include/cmsis_gcc.h **** 
 181:Drivers/CMSIS/Include/cmsis_gcc.h **** #ifndef __VECTOR_TABLE_ATTRIBUTE
 182:Drivers/CMSIS/Include/cmsis_gcc.h **** #define __VECTOR_TABLE_ATTRIBUTE  __attribute__((used, section(".vectors")))
 183:Drivers/CMSIS/Include/cmsis_gcc.h **** #endif
 184:Drivers/CMSIS/Include/cmsis_gcc.h **** 
 185:Drivers/CMSIS/Include/cmsis_gcc.h **** #if defined (__ARM_FEATURE_CMSE) && (__ARM_FEATURE_CMSE == 3U)
 186:Drivers/CMSIS/Include/cmsis_gcc.h **** #ifndef __STACK_SEAL
 187:Drivers/CMSIS/Include/cmsis_gcc.h **** #define __STACK_SEAL              __StackSeal
 188:Drivers/CMSIS/Include/cmsis_gcc.h **** #endif
 189:Drivers/CMSIS/Include/cmsis_gcc.h **** 
 190:Drivers/CMSIS/Include/cmsis_gcc.h **** #ifndef __TZ_STACK_SEAL_SIZE
 191:Drivers/CMSIS/Include/cmsis_gcc.h **** #define __TZ_STACK_SEAL_SIZE      8U
 192:Drivers/CMSIS/Include/cmsis_gcc.h **** #endif
 193:Drivers/CMSIS/Include/cmsis_gcc.h **** 
 194:Drivers/CMSIS/Include/cmsis_gcc.h **** #ifndef __TZ_STACK_SEAL_VALUE
 195:Drivers/CMSIS/Include/cmsis_gcc.h **** #define __TZ_STACK_SEAL_VALUE     0xFEF5EDA5FEF5EDA5ULL
 196:Drivers/CMSIS/Include/cmsis_gcc.h **** #endif
 197:Drivers/CMSIS/Include/cmsis_gcc.h **** 
 198:Drivers/CMSIS/Include/cmsis_gcc.h **** 
 199:Drivers/CMSIS/Include/cmsis_gcc.h **** __STATIC_FORCEINLINE void __TZ_set_STACKSEAL_S (uint32_t* stackTop) {
 200:Drivers/CMSIS/Include/cmsis_gcc.h ****   *((uint64_t *)stackTop) = __TZ_STACK_SEAL_VALUE;
 201:Drivers/CMSIS/Include/cmsis_gcc.h **** }
 202:Drivers/CMSIS/Include/cmsis_gcc.h **** #endif
 203:Drivers/CMSIS/Include/cmsis_gcc.h **** 
 204:Drivers/CMSIS/Include/cmsis_gcc.h **** 
 205:Drivers/CMSIS/Include/cmsis_gcc.h **** /* ##########################  Core Instruction Access  ######################### */
 206:Drivers/CMSIS/Include/cmsis_gcc.h **** /** \defgroup CMSIS_Core_InstructionInterface CMSIS Core Instruction Interface
 207:Drivers/CMSIS/Include/cmsis_gcc.h ****   Access to dedicated instructions
 208:Drivers/CMSIS/Include/cmsis_gcc.h ****   @{
 209:Drivers/CMSIS/Include/cmsis_gcc.h **** */
 210:Drivers/CMSIS/Include/cmsis_gcc.h **** 
 211:Drivers/CMSIS/Include/cmsis_gcc.h **** /* Define macros for porting to both thumb1 and thumb2.
 212:Drivers/CMSIS/Include/cmsis_gcc.h ****  * For thumb1, use low register (r0-r7), specified by constraint "l"
 213:Drivers/CMSIS/Include/cmsis_gcc.h ****  * Otherwise, use general registers, specified by constraint "r" */
 214:Drivers/CMSIS/Include/cmsis_gcc.h **** #if defined (__thumb__) && !defined (__thumb2__)
 215:Drivers/CMSIS/Include/cmsis_gcc.h **** #define __CMSIS_GCC_OUT_REG(r) "=l" (r)
 216:Drivers/CMSIS/Include/cmsis_gcc.h **** #define __CMSIS_GCC_RW_REG(r) "+l" (r)
 217:Drivers/CMSIS/Include/cmsis_gcc.h **** #define __CMSIS_GCC_USE_REG(r) "l" (r)
 218:Drivers/CMSIS/Include/cmsis_gcc.h **** #else
 219:Drivers/CMSIS/Include/cmsis_gcc.h **** #define __CMSIS_GCC_OUT_REG(r) "=r" (r)
 220:Drivers/CMSIS/Include/cmsis_gcc.h **** #define __CMSIS_GCC_RW_REG(r) "+r" (r)
ARM GAS  C:\Users\30514\AppData\Local\Temp\ccxdXenu.s 			page 9


 221:Drivers/CMSIS/Include/cmsis_gcc.h **** #define __CMSIS_GCC_USE_REG(r) "r" (r)
 222:Drivers/CMSIS/Include/cmsis_gcc.h **** #endif
 223:Drivers/CMSIS/Include/cmsis_gcc.h **** 
 224:Drivers/CMSIS/Include/cmsis_gcc.h **** /**
 225:Drivers/CMSIS/Include/cmsis_gcc.h ****   \brief   No Operation
 226:Drivers/CMSIS/Include/cmsis_gcc.h ****   \details No Operation does nothing. This instruction can be used for code alignment purposes.
 227:Drivers/CMSIS/Include/cmsis_gcc.h ****  */
 228:Drivers/CMSIS/Include/cmsis_gcc.h **** #define __NOP()                             __ASM volatile ("nop")
 229:Drivers/CMSIS/Include/cmsis_gcc.h **** 
 230:Drivers/CMSIS/Include/cmsis_gcc.h **** /**
 231:Drivers/CMSIS/Include/cmsis_gcc.h ****   \brief   Wait For Interrupt
 232:Drivers/CMSIS/Include/cmsis_gcc.h ****   \details Wait For Interrupt is a hint instruction that suspends execution until one of a number o
 233:Drivers/CMSIS/Include/cmsis_gcc.h ****  */
 234:Drivers/CMSIS/Include/cmsis_gcc.h **** #define __WFI()                             __ASM volatile ("wfi":::"memory")
 235:Drivers/CMSIS/Include/cmsis_gcc.h **** 
 236:Drivers/CMSIS/Include/cmsis_gcc.h **** 
 237:Drivers/CMSIS/Include/cmsis_gcc.h **** /**
 238:Drivers/CMSIS/Include/cmsis_gcc.h ****   \brief   Wait For Event
 239:Drivers/CMSIS/Include/cmsis_gcc.h ****   \details Wait For Event is a hint instruction that permits the processor to enter
 240:Drivers/CMSIS/Include/cmsis_gcc.h ****            a low-power state until one of a number of events occurs.
 241:Drivers/CMSIS/Include/cmsis_gcc.h ****  */
 242:Drivers/CMSIS/Include/cmsis_gcc.h **** #define __WFE()                             __ASM volatile ("wfe":::"memory")
 243:Drivers/CMSIS/Include/cmsis_gcc.h **** 
 244:Drivers/CMSIS/Include/cmsis_gcc.h **** 
 245:Drivers/CMSIS/Include/cmsis_gcc.h **** /**
 246:Drivers/CMSIS/Include/cmsis_gcc.h ****   \brief   Send Event
 247:Drivers/CMSIS/Include/cmsis_gcc.h ****   \details Send Event is a hint instruction. It causes an event to be signaled to the CPU.
 248:Drivers/CMSIS/Include/cmsis_gcc.h ****  */
 249:Drivers/CMSIS/Include/cmsis_gcc.h **** #define __SEV()                             __ASM volatile ("sev")
 250:Drivers/CMSIS/Include/cmsis_gcc.h **** 
 251:Drivers/CMSIS/Include/cmsis_gcc.h **** 
 252:Drivers/CMSIS/Include/cmsis_gcc.h **** /**
 253:Drivers/CMSIS/Include/cmsis_gcc.h ****   \brief   Instruction Synchronization Barrier
 254:Drivers/CMSIS/Include/cmsis_gcc.h ****   \details Instruction Synchronization Barrier flushes the pipeline in the processor,
 255:Drivers/CMSIS/Include/cmsis_gcc.h ****            so that all instructions following the ISB are fetched from cache or memory,
 256:Drivers/CMSIS/Include/cmsis_gcc.h ****            after the instruction has been completed.
 257:Drivers/CMSIS/Include/cmsis_gcc.h ****  */
 258:Drivers/CMSIS/Include/cmsis_gcc.h **** __STATIC_FORCEINLINE void __ISB(void)
 259:Drivers/CMSIS/Include/cmsis_gcc.h **** {
 260:Drivers/CMSIS/Include/cmsis_gcc.h ****   __ASM volatile ("isb 0xF":::"memory");
 261:Drivers/CMSIS/Include/cmsis_gcc.h **** }
 262:Drivers/CMSIS/Include/cmsis_gcc.h **** 
 263:Drivers/CMSIS/Include/cmsis_gcc.h **** 
 264:Drivers/CMSIS/Include/cmsis_gcc.h **** /**
 265:Drivers/CMSIS/Include/cmsis_gcc.h ****   \brief   Data Synchronization Barrier
 266:Drivers/CMSIS/Include/cmsis_gcc.h ****   \details Acts as a special kind of Data Memory Barrier.
 267:Drivers/CMSIS/Include/cmsis_gcc.h ****            It completes when all explicit memory accesses before this instruction complete.
 268:Drivers/CMSIS/Include/cmsis_gcc.h ****  */
 269:Drivers/CMSIS/Include/cmsis_gcc.h **** __STATIC_FORCEINLINE void __DSB(void)
 270:Drivers/CMSIS/Include/cmsis_gcc.h **** {
 271:Drivers/CMSIS/Include/cmsis_gcc.h ****   __ASM volatile ("dsb 0xF":::"memory");
 272:Drivers/CMSIS/Include/cmsis_gcc.h **** }
 273:Drivers/CMSIS/Include/cmsis_gcc.h **** 
 274:Drivers/CMSIS/Include/cmsis_gcc.h **** 
 275:Drivers/CMSIS/Include/cmsis_gcc.h **** /**
 276:Drivers/CMSIS/Include/cmsis_gcc.h ****   \brief   Data Memory Barrier
 277:Drivers/CMSIS/Include/cmsis_gcc.h ****   \details Ensures the apparent order of the explicit memory operations before
ARM GAS  C:\Users\30514\AppData\Local\Temp\ccxdXenu.s 			page 10


 278:Drivers/CMSIS/Include/cmsis_gcc.h ****            and after the instruction, without ensuring their completion.
 279:Drivers/CMSIS/Include/cmsis_gcc.h ****  */
 280:Drivers/CMSIS/Include/cmsis_gcc.h **** __STATIC_FORCEINLINE void __DMB(void)
 281:Drivers/CMSIS/Include/cmsis_gcc.h **** {
 282:Drivers/CMSIS/Include/cmsis_gcc.h ****   __ASM volatile ("dmb 0xF":::"memory");
 283:Drivers/CMSIS/Include/cmsis_gcc.h **** }
 284:Drivers/CMSIS/Include/cmsis_gcc.h **** 
 285:Drivers/CMSIS/Include/cmsis_gcc.h **** 
 286:Drivers/CMSIS/Include/cmsis_gcc.h **** /**
 287:Drivers/CMSIS/Include/cmsis_gcc.h ****   \brief   Reverse byte order (32 bit)
 288:Drivers/CMSIS/Include/cmsis_gcc.h ****   \details Reverses the byte order in unsigned integer value. For example, 0x12345678 becomes 0x785
 289:Drivers/CMSIS/Include/cmsis_gcc.h ****   \param [in]    value  Value to reverse
 290:Drivers/CMSIS/Include/cmsis_gcc.h ****   \return               Reversed value
 291:Drivers/CMSIS/Include/cmsis_gcc.h ****  */
 292:Drivers/CMSIS/Include/cmsis_gcc.h **** __STATIC_FORCEINLINE uint32_t __REV(uint32_t value)
 293:Drivers/CMSIS/Include/cmsis_gcc.h **** {
 294:Drivers/CMSIS/Include/cmsis_gcc.h **** #if (__GNUC__ > 4) || (__GNUC__ == 4 && __GNUC_MINOR__ >= 5)
 295:Drivers/CMSIS/Include/cmsis_gcc.h ****   return __builtin_bswap32(value);
 296:Drivers/CMSIS/Include/cmsis_gcc.h **** #else
 297:Drivers/CMSIS/Include/cmsis_gcc.h ****   uint32_t result;
 298:Drivers/CMSIS/Include/cmsis_gcc.h **** 
 299:Drivers/CMSIS/Include/cmsis_gcc.h ****   __ASM ("rev %0, %1" : __CMSIS_GCC_OUT_REG (result) : __CMSIS_GCC_USE_REG (value) );
 300:Drivers/CMSIS/Include/cmsis_gcc.h ****   return result;
 301:Drivers/CMSIS/Include/cmsis_gcc.h **** #endif
 302:Drivers/CMSIS/Include/cmsis_gcc.h **** }
 303:Drivers/CMSIS/Include/cmsis_gcc.h **** 
 304:Drivers/CMSIS/Include/cmsis_gcc.h **** 
 305:Drivers/CMSIS/Include/cmsis_gcc.h **** /**
 306:Drivers/CMSIS/Include/cmsis_gcc.h ****   \brief   Reverse byte order (16 bit)
 307:Drivers/CMSIS/Include/cmsis_gcc.h ****   \details Reverses the byte order within each halfword of a word. For example, 0x12345678 becomes 
 308:Drivers/CMSIS/Include/cmsis_gcc.h ****   \param [in]    value  Value to reverse
 309:Drivers/CMSIS/Include/cmsis_gcc.h ****   \return               Reversed value
 310:Drivers/CMSIS/Include/cmsis_gcc.h ****  */
 311:Drivers/CMSIS/Include/cmsis_gcc.h **** __STATIC_FORCEINLINE uint32_t __REV16(uint32_t value)
 312:Drivers/CMSIS/Include/cmsis_gcc.h **** {
 313:Drivers/CMSIS/Include/cmsis_gcc.h ****   uint32_t result;
 314:Drivers/CMSIS/Include/cmsis_gcc.h **** 
 315:Drivers/CMSIS/Include/cmsis_gcc.h ****   __ASM ("rev16 %0, %1" : __CMSIS_GCC_OUT_REG (result) : __CMSIS_GCC_USE_REG (value) );
 316:Drivers/CMSIS/Include/cmsis_gcc.h ****   return result;
 317:Drivers/CMSIS/Include/cmsis_gcc.h **** }
 318:Drivers/CMSIS/Include/cmsis_gcc.h **** 
 319:Drivers/CMSIS/Include/cmsis_gcc.h **** 
 320:Drivers/CMSIS/Include/cmsis_gcc.h **** /**
 321:Drivers/CMSIS/Include/cmsis_gcc.h ****   \brief   Reverse byte order (16 bit)
 322:Drivers/CMSIS/Include/cmsis_gcc.h ****   \details Reverses the byte order in a 16-bit value and returns the signed 16-bit result. For exam
 323:Drivers/CMSIS/Include/cmsis_gcc.h ****   \param [in]    value  Value to reverse
 324:Drivers/CMSIS/Include/cmsis_gcc.h ****   \return               Reversed value
 325:Drivers/CMSIS/Include/cmsis_gcc.h ****  */
 326:Drivers/CMSIS/Include/cmsis_gcc.h **** __STATIC_FORCEINLINE int16_t __REVSH(int16_t value)
 327:Drivers/CMSIS/Include/cmsis_gcc.h **** {
 328:Drivers/CMSIS/Include/cmsis_gcc.h **** #if (__GNUC__ > 4) || (__GNUC__ == 4 && __GNUC_MINOR__ >= 8)
 329:Drivers/CMSIS/Include/cmsis_gcc.h ****   return (int16_t)__builtin_bswap16(value);
 330:Drivers/CMSIS/Include/cmsis_gcc.h **** #else
 331:Drivers/CMSIS/Include/cmsis_gcc.h ****   int16_t result;
 332:Drivers/CMSIS/Include/cmsis_gcc.h **** 
 333:Drivers/CMSIS/Include/cmsis_gcc.h ****   __ASM ("revsh %0, %1" : __CMSIS_GCC_OUT_REG (result) : __CMSIS_GCC_USE_REG (value) );
 334:Drivers/CMSIS/Include/cmsis_gcc.h ****   return result;
ARM GAS  C:\Users\30514\AppData\Local\Temp\ccxdXenu.s 			page 11


 335:Drivers/CMSIS/Include/cmsis_gcc.h **** #endif
 336:Drivers/CMSIS/Include/cmsis_gcc.h **** }
 337:Drivers/CMSIS/Include/cmsis_gcc.h **** 
 338:Drivers/CMSIS/Include/cmsis_gcc.h **** 
 339:Drivers/CMSIS/Include/cmsis_gcc.h **** /**
 340:Drivers/CMSIS/Include/cmsis_gcc.h ****   \brief   Rotate Right in unsigned value (32 bit)
 341:Drivers/CMSIS/Include/cmsis_gcc.h ****   \details Rotate Right (immediate) provides the value of the contents of a register rotated by a v
 342:Drivers/CMSIS/Include/cmsis_gcc.h ****   \param [in]    op1  Value to rotate
 343:Drivers/CMSIS/Include/cmsis_gcc.h ****   \param [in]    op2  Number of Bits to rotate
 344:Drivers/CMSIS/Include/cmsis_gcc.h ****   \return               Rotated value
 345:Drivers/CMSIS/Include/cmsis_gcc.h ****  */
 346:Drivers/CMSIS/Include/cmsis_gcc.h **** __STATIC_FORCEINLINE uint32_t __ROR(uint32_t op1, uint32_t op2)
 347:Drivers/CMSIS/Include/cmsis_gcc.h **** {
 348:Drivers/CMSIS/Include/cmsis_gcc.h ****   op2 %= 32U;
 349:Drivers/CMSIS/Include/cmsis_gcc.h ****   if (op2 == 0U)
 350:Drivers/CMSIS/Include/cmsis_gcc.h ****   {
 351:Drivers/CMSIS/Include/cmsis_gcc.h ****     return op1;
 352:Drivers/CMSIS/Include/cmsis_gcc.h ****   }
 353:Drivers/CMSIS/Include/cmsis_gcc.h ****   return (op1 >> op2) | (op1 << (32U - op2));
 354:Drivers/CMSIS/Include/cmsis_gcc.h **** }
 355:Drivers/CMSIS/Include/cmsis_gcc.h **** 
 356:Drivers/CMSIS/Include/cmsis_gcc.h **** 
 357:Drivers/CMSIS/Include/cmsis_gcc.h **** /**
 358:Drivers/CMSIS/Include/cmsis_gcc.h ****   \brief   Breakpoint
 359:Drivers/CMSIS/Include/cmsis_gcc.h ****   \details Causes the processor to enter Debug state.
 360:Drivers/CMSIS/Include/cmsis_gcc.h ****            Debug tools can use this to investigate system state when the instruction at a particula
 361:Drivers/CMSIS/Include/cmsis_gcc.h ****   \param [in]    value  is ignored by the processor.
 362:Drivers/CMSIS/Include/cmsis_gcc.h ****                  If required, a debugger can use it to store additional information about the break
 363:Drivers/CMSIS/Include/cmsis_gcc.h ****  */
 364:Drivers/CMSIS/Include/cmsis_gcc.h **** #define __BKPT(value)                       __ASM volatile ("bkpt "#value)
 365:Drivers/CMSIS/Include/cmsis_gcc.h **** 
 366:Drivers/CMSIS/Include/cmsis_gcc.h **** 
 367:Drivers/CMSIS/Include/cmsis_gcc.h **** /**
 368:Drivers/CMSIS/Include/cmsis_gcc.h ****   \brief   Reverse bit order of value
 369:Drivers/CMSIS/Include/cmsis_gcc.h ****   \details Reverses the bit order of the given value.
 370:Drivers/CMSIS/Include/cmsis_gcc.h ****   \param [in]    value  Value to reverse
 371:Drivers/CMSIS/Include/cmsis_gcc.h ****   \return               Reversed value
 372:Drivers/CMSIS/Include/cmsis_gcc.h ****  */
 373:Drivers/CMSIS/Include/cmsis_gcc.h **** __STATIC_FORCEINLINE uint32_t __RBIT(uint32_t value)
 374:Drivers/CMSIS/Include/cmsis_gcc.h **** {
 375:Drivers/CMSIS/Include/cmsis_gcc.h ****   uint32_t result;
 376:Drivers/CMSIS/Include/cmsis_gcc.h **** 
 377:Drivers/CMSIS/Include/cmsis_gcc.h **** #if ((defined (__ARM_ARCH_7M__      ) && (__ARM_ARCH_7M__      == 1)) || \
 378:Drivers/CMSIS/Include/cmsis_gcc.h ****      (defined (__ARM_ARCH_7EM__     ) && (__ARM_ARCH_7EM__     == 1)) || \
 379:Drivers/CMSIS/Include/cmsis_gcc.h ****      (defined (__ARM_ARCH_8M_MAIN__ ) && (__ARM_ARCH_8M_MAIN__ == 1))    )
 380:Drivers/CMSIS/Include/cmsis_gcc.h ****    __ASM ("rbit %0, %1" : "=r" (result) : "r" (value) );
 381:Drivers/CMSIS/Include/cmsis_gcc.h **** #else
 382:Drivers/CMSIS/Include/cmsis_gcc.h ****   uint32_t s = (4U /*sizeof(v)*/ * 8U) - 1U; /* extra shift needed at end */
 383:Drivers/CMSIS/Include/cmsis_gcc.h **** 
 384:Drivers/CMSIS/Include/cmsis_gcc.h ****   result = value;                      /* r will be reversed bits of v; first get LSB of v */
 385:Drivers/CMSIS/Include/cmsis_gcc.h ****   for (value >>= 1U; value != 0U; value >>= 1U)
 386:Drivers/CMSIS/Include/cmsis_gcc.h ****   {
 387:Drivers/CMSIS/Include/cmsis_gcc.h ****     result <<= 1U;
 388:Drivers/CMSIS/Include/cmsis_gcc.h ****     result |= value & 1U;
 389:Drivers/CMSIS/Include/cmsis_gcc.h ****     s--;
 390:Drivers/CMSIS/Include/cmsis_gcc.h ****   }
 391:Drivers/CMSIS/Include/cmsis_gcc.h ****   result <<= s;                        /* shift when v's highest bits are zero */
ARM GAS  C:\Users\30514\AppData\Local\Temp\ccxdXenu.s 			page 12


 392:Drivers/CMSIS/Include/cmsis_gcc.h **** #endif
 393:Drivers/CMSIS/Include/cmsis_gcc.h ****   return result;
 394:Drivers/CMSIS/Include/cmsis_gcc.h **** }
 395:Drivers/CMSIS/Include/cmsis_gcc.h **** 
 396:Drivers/CMSIS/Include/cmsis_gcc.h **** 
 397:Drivers/CMSIS/Include/cmsis_gcc.h **** /**
 398:Drivers/CMSIS/Include/cmsis_gcc.h ****   \brief   Count leading zeros
 399:Drivers/CMSIS/Include/cmsis_gcc.h ****   \details Counts the number of leading zeros of a data value.
 400:Drivers/CMSIS/Include/cmsis_gcc.h ****   \param [in]  value  Value to count the leading zeros
 401:Drivers/CMSIS/Include/cmsis_gcc.h ****   \return             number of leading zeros in value
 402:Drivers/CMSIS/Include/cmsis_gcc.h ****  */
 403:Drivers/CMSIS/Include/cmsis_gcc.h **** __STATIC_FORCEINLINE uint8_t __CLZ(uint32_t value)
 404:Drivers/CMSIS/Include/cmsis_gcc.h **** {
 405:Drivers/CMSIS/Include/cmsis_gcc.h ****   /* Even though __builtin_clz produces a CLZ instruction on ARM, formally
 406:Drivers/CMSIS/Include/cmsis_gcc.h ****      __builtin_clz(0) is undefined behaviour, so handle this case specially.
 407:Drivers/CMSIS/Include/cmsis_gcc.h ****      This guarantees ARM-compatible results if happening to compile on a non-ARM
 408:Drivers/CMSIS/Include/cmsis_gcc.h ****      target, and ensures the compiler doesn't decide to activate any
 409:Drivers/CMSIS/Include/cmsis_gcc.h ****      optimisations using the logic "value was passed to __builtin_clz, so it
 410:Drivers/CMSIS/Include/cmsis_gcc.h ****      is non-zero".
 411:Drivers/CMSIS/Include/cmsis_gcc.h ****      ARM GCC 7.3 and possibly earlier will optimise this test away, leaving a
 412:Drivers/CMSIS/Include/cmsis_gcc.h ****      single CLZ instruction.
 413:Drivers/CMSIS/Include/cmsis_gcc.h ****    */
 414:Drivers/CMSIS/Include/cmsis_gcc.h ****   if (value == 0U)
 415:Drivers/CMSIS/Include/cmsis_gcc.h ****   {
 416:Drivers/CMSIS/Include/cmsis_gcc.h ****     return 32U;
 417:Drivers/CMSIS/Include/cmsis_gcc.h ****   }
 418:Drivers/CMSIS/Include/cmsis_gcc.h ****   return __builtin_clz(value);
 419:Drivers/CMSIS/Include/cmsis_gcc.h **** }
 420:Drivers/CMSIS/Include/cmsis_gcc.h **** 
 421:Drivers/CMSIS/Include/cmsis_gcc.h **** 
 422:Drivers/CMSIS/Include/cmsis_gcc.h **** #if ((defined (__ARM_ARCH_7M__      ) && (__ARM_ARCH_7M__      == 1)) || \
 423:Drivers/CMSIS/Include/cmsis_gcc.h ****      (defined (__ARM_ARCH_7EM__     ) && (__ARM_ARCH_7EM__     == 1)) || \
 424:Drivers/CMSIS/Include/cmsis_gcc.h ****      (defined (__ARM_ARCH_8M_MAIN__ ) && (__ARM_ARCH_8M_MAIN__ == 1)) || \
 425:Drivers/CMSIS/Include/cmsis_gcc.h ****      (defined (__ARM_ARCH_8M_BASE__ ) && (__ARM_ARCH_8M_BASE__ == 1))    )
 426:Drivers/CMSIS/Include/cmsis_gcc.h **** /**
 427:Drivers/CMSIS/Include/cmsis_gcc.h ****   \brief   LDR Exclusive (8 bit)
 428:Drivers/CMSIS/Include/cmsis_gcc.h ****   \details Executes a exclusive LDR instruction for 8 bit value.
 429:Drivers/CMSIS/Include/cmsis_gcc.h ****   \param [in]    ptr  Pointer to data
 430:Drivers/CMSIS/Include/cmsis_gcc.h ****   \return             value of type uint8_t at (*ptr)
 431:Drivers/CMSIS/Include/cmsis_gcc.h ****  */
 432:Drivers/CMSIS/Include/cmsis_gcc.h **** __STATIC_FORCEINLINE uint8_t __LDREXB(volatile uint8_t *addr)
 433:Drivers/CMSIS/Include/cmsis_gcc.h **** {
 434:Drivers/CMSIS/Include/cmsis_gcc.h ****     uint32_t result;
 435:Drivers/CMSIS/Include/cmsis_gcc.h **** 
 436:Drivers/CMSIS/Include/cmsis_gcc.h **** #if (__GNUC__ > 4) || (__GNUC__ == 4 && __GNUC_MINOR__ >= 8)
 437:Drivers/CMSIS/Include/cmsis_gcc.h ****    __ASM volatile ("ldrexb %0, %1" : "=r" (result) : "Q" (*addr) );
 438:Drivers/CMSIS/Include/cmsis_gcc.h **** #else
 439:Drivers/CMSIS/Include/cmsis_gcc.h ****     /* Prior to GCC 4.8, "Q" will be expanded to [rx, #0] which is not
 440:Drivers/CMSIS/Include/cmsis_gcc.h ****        accepted by assembler. So has to use following less efficient pattern.
 441:Drivers/CMSIS/Include/cmsis_gcc.h ****     */
 442:Drivers/CMSIS/Include/cmsis_gcc.h ****    __ASM volatile ("ldrexb %0, [%1]" : "=r" (result) : "r" (addr) : "memory" );
 443:Drivers/CMSIS/Include/cmsis_gcc.h **** #endif
 444:Drivers/CMSIS/Include/cmsis_gcc.h ****    return ((uint8_t) result);    /* Add explicit type cast here */
 445:Drivers/CMSIS/Include/cmsis_gcc.h **** }
 446:Drivers/CMSIS/Include/cmsis_gcc.h **** 
 447:Drivers/CMSIS/Include/cmsis_gcc.h **** 
 448:Drivers/CMSIS/Include/cmsis_gcc.h **** /**
ARM GAS  C:\Users\30514\AppData\Local\Temp\ccxdXenu.s 			page 13


 449:Drivers/CMSIS/Include/cmsis_gcc.h ****   \brief   LDR Exclusive (16 bit)
 450:Drivers/CMSIS/Include/cmsis_gcc.h ****   \details Executes a exclusive LDR instruction for 16 bit values.
 451:Drivers/CMSIS/Include/cmsis_gcc.h ****   \param [in]    ptr  Pointer to data
 452:Drivers/CMSIS/Include/cmsis_gcc.h ****   \return        value of type uint16_t at (*ptr)
 453:Drivers/CMSIS/Include/cmsis_gcc.h ****  */
 454:Drivers/CMSIS/Include/cmsis_gcc.h **** __STATIC_FORCEINLINE uint16_t __LDREXH(volatile uint16_t *addr)
 455:Drivers/CMSIS/Include/cmsis_gcc.h **** {
 456:Drivers/CMSIS/Include/cmsis_gcc.h ****     uint32_t result;
 457:Drivers/CMSIS/Include/cmsis_gcc.h **** 
 458:Drivers/CMSIS/Include/cmsis_gcc.h **** #if (__GNUC__ > 4) || (__GNUC__ == 4 && __GNUC_MINOR__ >= 8)
 459:Drivers/CMSIS/Include/cmsis_gcc.h ****    __ASM volatile ("ldrexh %0, %1" : "=r" (result) : "Q" (*addr) );
 460:Drivers/CMSIS/Include/cmsis_gcc.h **** #else
 461:Drivers/CMSIS/Include/cmsis_gcc.h ****     /* Prior to GCC 4.8, "Q" will be expanded to [rx, #0] which is not
 462:Drivers/CMSIS/Include/cmsis_gcc.h ****        accepted by assembler. So has to use following less efficient pattern.
 463:Drivers/CMSIS/Include/cmsis_gcc.h ****     */
 464:Drivers/CMSIS/Include/cmsis_gcc.h ****    __ASM volatile ("ldrexh %0, [%1]" : "=r" (result) : "r" (addr) : "memory" );
 465:Drivers/CMSIS/Include/cmsis_gcc.h **** #endif
 466:Drivers/CMSIS/Include/cmsis_gcc.h ****    return ((uint16_t) result);    /* Add explicit type cast here */
 467:Drivers/CMSIS/Include/cmsis_gcc.h **** }
 468:Drivers/CMSIS/Include/cmsis_gcc.h **** 
 469:Drivers/CMSIS/Include/cmsis_gcc.h **** 
 470:Drivers/CMSIS/Include/cmsis_gcc.h **** /**
 471:Drivers/CMSIS/Include/cmsis_gcc.h ****   \brief   LDR Exclusive (32 bit)
 472:Drivers/CMSIS/Include/cmsis_gcc.h ****   \details Executes a exclusive LDR instruction for 32 bit values.
 473:Drivers/CMSIS/Include/cmsis_gcc.h ****   \param [in]    ptr  Pointer to data
 474:Drivers/CMSIS/Include/cmsis_gcc.h ****   \return        value of type uint32_t at (*ptr)
 475:Drivers/CMSIS/Include/cmsis_gcc.h ****  */
 476:Drivers/CMSIS/Include/cmsis_gcc.h **** __STATIC_FORCEINLINE uint32_t __LDREXW(volatile uint32_t *addr)
 477:Drivers/CMSIS/Include/cmsis_gcc.h **** {
 478:Drivers/CMSIS/Include/cmsis_gcc.h ****     uint32_t result;
 479:Drivers/CMSIS/Include/cmsis_gcc.h **** 
 480:Drivers/CMSIS/Include/cmsis_gcc.h ****    __ASM volatile ("ldrex %0, %1" : "=r" (result) : "Q" (*addr) );
 481:Drivers/CMSIS/Include/cmsis_gcc.h ****    return(result);
 482:Drivers/CMSIS/Include/cmsis_gcc.h **** }
 483:Drivers/CMSIS/Include/cmsis_gcc.h **** 
 484:Drivers/CMSIS/Include/cmsis_gcc.h **** 
 485:Drivers/CMSIS/Include/cmsis_gcc.h **** /**
 486:Drivers/CMSIS/Include/cmsis_gcc.h ****   \brief   STR Exclusive (8 bit)
 487:Drivers/CMSIS/Include/cmsis_gcc.h ****   \details Executes a exclusive STR instruction for 8 bit values.
 488:Drivers/CMSIS/Include/cmsis_gcc.h ****   \param [in]  value  Value to store
 489:Drivers/CMSIS/Include/cmsis_gcc.h ****   \param [in]    ptr  Pointer to location
 490:Drivers/CMSIS/Include/cmsis_gcc.h ****   \return          0  Function succeeded
 491:Drivers/CMSIS/Include/cmsis_gcc.h ****   \return          1  Function failed
 492:Drivers/CMSIS/Include/cmsis_gcc.h ****  */
 493:Drivers/CMSIS/Include/cmsis_gcc.h **** __STATIC_FORCEINLINE uint32_t __STREXB(uint8_t value, volatile uint8_t *addr)
 494:Drivers/CMSIS/Include/cmsis_gcc.h **** {
 495:Drivers/CMSIS/Include/cmsis_gcc.h ****    uint32_t result;
 496:Drivers/CMSIS/Include/cmsis_gcc.h **** 
 497:Drivers/CMSIS/Include/cmsis_gcc.h ****    __ASM volatile ("strexb %0, %2, %1" : "=&r" (result), "=Q" (*addr) : "r" ((uint32_t)value) );
 498:Drivers/CMSIS/Include/cmsis_gcc.h ****    return(result);
 499:Drivers/CMSIS/Include/cmsis_gcc.h **** }
 500:Drivers/CMSIS/Include/cmsis_gcc.h **** 
 501:Drivers/CMSIS/Include/cmsis_gcc.h **** 
 502:Drivers/CMSIS/Include/cmsis_gcc.h **** /**
 503:Drivers/CMSIS/Include/cmsis_gcc.h ****   \brief   STR Exclusive (16 bit)
 504:Drivers/CMSIS/Include/cmsis_gcc.h ****   \details Executes a exclusive STR instruction for 16 bit values.
 505:Drivers/CMSIS/Include/cmsis_gcc.h ****   \param [in]  value  Value to store
ARM GAS  C:\Users\30514\AppData\Local\Temp\ccxdXenu.s 			page 14


 506:Drivers/CMSIS/Include/cmsis_gcc.h ****   \param [in]    ptr  Pointer to location
 507:Drivers/CMSIS/Include/cmsis_gcc.h ****   \return          0  Function succeeded
 508:Drivers/CMSIS/Include/cmsis_gcc.h ****   \return          1  Function failed
 509:Drivers/CMSIS/Include/cmsis_gcc.h ****  */
 510:Drivers/CMSIS/Include/cmsis_gcc.h **** __STATIC_FORCEINLINE uint32_t __STREXH(uint16_t value, volatile uint16_t *addr)
 511:Drivers/CMSIS/Include/cmsis_gcc.h **** {
 512:Drivers/CMSIS/Include/cmsis_gcc.h ****    uint32_t result;
 513:Drivers/CMSIS/Include/cmsis_gcc.h **** 
 514:Drivers/CMSIS/Include/cmsis_gcc.h ****    __ASM volatile ("strexh %0, %2, %1" : "=&r" (result), "=Q" (*addr) : "r" ((uint32_t)value) );
 515:Drivers/CMSIS/Include/cmsis_gcc.h ****    return(result);
 516:Drivers/CMSIS/Include/cmsis_gcc.h **** }
 517:Drivers/CMSIS/Include/cmsis_gcc.h **** 
 518:Drivers/CMSIS/Include/cmsis_gcc.h **** 
 519:Drivers/CMSIS/Include/cmsis_gcc.h **** /**
 520:Drivers/CMSIS/Include/cmsis_gcc.h ****   \brief   STR Exclusive (32 bit)
 521:Drivers/CMSIS/Include/cmsis_gcc.h ****   \details Executes a exclusive STR instruction for 32 bit values.
 522:Drivers/CMSIS/Include/cmsis_gcc.h ****   \param [in]  value  Value to store
 523:Drivers/CMSIS/Include/cmsis_gcc.h ****   \param [in]    ptr  Pointer to location
 524:Drivers/CMSIS/Include/cmsis_gcc.h ****   \return          0  Function succeeded
 525:Drivers/CMSIS/Include/cmsis_gcc.h ****   \return          1  Function failed
 526:Drivers/CMSIS/Include/cmsis_gcc.h ****  */
 527:Drivers/CMSIS/Include/cmsis_gcc.h **** __STATIC_FORCEINLINE uint32_t __STREXW(uint32_t value, volatile uint32_t *addr)
 528:Drivers/CMSIS/Include/cmsis_gcc.h **** {
 529:Drivers/CMSIS/Include/cmsis_gcc.h ****    uint32_t result;
 530:Drivers/CMSIS/Include/cmsis_gcc.h **** 
 531:Drivers/CMSIS/Include/cmsis_gcc.h ****    __ASM volatile ("strex %0, %2, %1" : "=&r" (result), "=Q" (*addr) : "r" (value) );
 532:Drivers/CMSIS/Include/cmsis_gcc.h ****    return(result);
 533:Drivers/CMSIS/Include/cmsis_gcc.h **** }
 534:Drivers/CMSIS/Include/cmsis_gcc.h **** 
 535:Drivers/CMSIS/Include/cmsis_gcc.h **** 
 536:Drivers/CMSIS/Include/cmsis_gcc.h **** /**
 537:Drivers/CMSIS/Include/cmsis_gcc.h ****   \brief   Remove the exclusive lock
 538:Drivers/CMSIS/Include/cmsis_gcc.h ****   \details Removes the exclusive lock which is created by LDREX.
 539:Drivers/CMSIS/Include/cmsis_gcc.h ****  */
 540:Drivers/CMSIS/Include/cmsis_gcc.h **** __STATIC_FORCEINLINE void __CLREX(void)
 541:Drivers/CMSIS/Include/cmsis_gcc.h **** {
 542:Drivers/CMSIS/Include/cmsis_gcc.h ****   __ASM volatile ("clrex" ::: "memory");
 543:Drivers/CMSIS/Include/cmsis_gcc.h **** }
 544:Drivers/CMSIS/Include/cmsis_gcc.h **** 
 545:Drivers/CMSIS/Include/cmsis_gcc.h **** #endif /* ((defined (__ARM_ARCH_7M__      ) && (__ARM_ARCH_7M__      == 1)) || \
 546:Drivers/CMSIS/Include/cmsis_gcc.h ****            (defined (__ARM_ARCH_7EM__     ) && (__ARM_ARCH_7EM__     == 1)) || \
 547:Drivers/CMSIS/Include/cmsis_gcc.h ****            (defined (__ARM_ARCH_8M_MAIN__ ) && (__ARM_ARCH_8M_MAIN__ == 1)) || \
 548:Drivers/CMSIS/Include/cmsis_gcc.h ****            (defined (__ARM_ARCH_8M_BASE__ ) && (__ARM_ARCH_8M_BASE__ == 1))    ) */
 549:Drivers/CMSIS/Include/cmsis_gcc.h **** 
 550:Drivers/CMSIS/Include/cmsis_gcc.h **** 
 551:Drivers/CMSIS/Include/cmsis_gcc.h **** #if ((defined (__ARM_ARCH_7M__      ) && (__ARM_ARCH_7M__      == 1)) || \
 552:Drivers/CMSIS/Include/cmsis_gcc.h ****      (defined (__ARM_ARCH_7EM__     ) && (__ARM_ARCH_7EM__     == 1)) || \
 553:Drivers/CMSIS/Include/cmsis_gcc.h ****      (defined (__ARM_ARCH_8M_MAIN__ ) && (__ARM_ARCH_8M_MAIN__ == 1))    )
 554:Drivers/CMSIS/Include/cmsis_gcc.h **** /**
 555:Drivers/CMSIS/Include/cmsis_gcc.h ****   \brief   Signed Saturate
 556:Drivers/CMSIS/Include/cmsis_gcc.h ****   \details Saturates a signed value.
 557:Drivers/CMSIS/Include/cmsis_gcc.h ****   \param [in]  ARG1  Value to be saturated
 558:Drivers/CMSIS/Include/cmsis_gcc.h ****   \param [in]  ARG2  Bit position to saturate to (1..32)
 559:Drivers/CMSIS/Include/cmsis_gcc.h ****   \return             Saturated value
 560:Drivers/CMSIS/Include/cmsis_gcc.h ****  */
 561:Drivers/CMSIS/Include/cmsis_gcc.h **** #define __SSAT(ARG1, ARG2) \
 562:Drivers/CMSIS/Include/cmsis_gcc.h **** __extension__ \
ARM GAS  C:\Users\30514\AppData\Local\Temp\ccxdXenu.s 			page 15


 563:Drivers/CMSIS/Include/cmsis_gcc.h **** ({                          \
 564:Drivers/CMSIS/Include/cmsis_gcc.h ****   int32_t __RES, __ARG1 = (ARG1); \
 565:Drivers/CMSIS/Include/cmsis_gcc.h ****   __ASM volatile ("ssat %0, %1, %2" : "=r" (__RES) :  "I" (ARG2), "r" (__ARG1) : "cc" ); \
 566:Drivers/CMSIS/Include/cmsis_gcc.h ****   __RES; \
 567:Drivers/CMSIS/Include/cmsis_gcc.h ****  })
 568:Drivers/CMSIS/Include/cmsis_gcc.h **** 
 569:Drivers/CMSIS/Include/cmsis_gcc.h **** 
 570:Drivers/CMSIS/Include/cmsis_gcc.h **** /**
 571:Drivers/CMSIS/Include/cmsis_gcc.h ****   \brief   Unsigned Saturate
 572:Drivers/CMSIS/Include/cmsis_gcc.h ****   \details Saturates an unsigned value.
 573:Drivers/CMSIS/Include/cmsis_gcc.h ****   \param [in]  ARG1  Value to be saturated
 574:Drivers/CMSIS/Include/cmsis_gcc.h ****   \param [in]  ARG2  Bit position to saturate to (0..31)
 575:Drivers/CMSIS/Include/cmsis_gcc.h ****   \return             Saturated value
 576:Drivers/CMSIS/Include/cmsis_gcc.h ****  */
 577:Drivers/CMSIS/Include/cmsis_gcc.h **** #define __USAT(ARG1, ARG2) \
 578:Drivers/CMSIS/Include/cmsis_gcc.h **** __extension__ \
 579:Drivers/CMSIS/Include/cmsis_gcc.h **** ({                          \
 580:Drivers/CMSIS/Include/cmsis_gcc.h ****   uint32_t __RES, __ARG1 = (ARG1); \
 581:Drivers/CMSIS/Include/cmsis_gcc.h ****   __ASM volatile ("usat %0, %1, %2" : "=r" (__RES) :  "I" (ARG2), "r" (__ARG1) : "cc" ); \
 582:Drivers/CMSIS/Include/cmsis_gcc.h ****   __RES; \
 583:Drivers/CMSIS/Include/cmsis_gcc.h ****  })
 584:Drivers/CMSIS/Include/cmsis_gcc.h **** 
 585:Drivers/CMSIS/Include/cmsis_gcc.h **** 
 586:Drivers/CMSIS/Include/cmsis_gcc.h **** /**
 587:Drivers/CMSIS/Include/cmsis_gcc.h ****   \brief   Rotate Right with Extend (32 bit)
 588:Drivers/CMSIS/Include/cmsis_gcc.h ****   \details Moves each bit of a bitstring right by one bit.
 589:Drivers/CMSIS/Include/cmsis_gcc.h ****            The carry input is shifted in at the left end of the bitstring.
 590:Drivers/CMSIS/Include/cmsis_gcc.h ****   \param [in]    value  Value to rotate
 591:Drivers/CMSIS/Include/cmsis_gcc.h ****   \return               Rotated value
 592:Drivers/CMSIS/Include/cmsis_gcc.h ****  */
 593:Drivers/CMSIS/Include/cmsis_gcc.h **** __STATIC_FORCEINLINE uint32_t __RRX(uint32_t value)
 594:Drivers/CMSIS/Include/cmsis_gcc.h **** {
 595:Drivers/CMSIS/Include/cmsis_gcc.h ****   uint32_t result;
 596:Drivers/CMSIS/Include/cmsis_gcc.h **** 
 597:Drivers/CMSIS/Include/cmsis_gcc.h ****   __ASM volatile ("rrx %0, %1" : __CMSIS_GCC_OUT_REG (result) : __CMSIS_GCC_USE_REG (value) );
 598:Drivers/CMSIS/Include/cmsis_gcc.h ****   return(result);
 599:Drivers/CMSIS/Include/cmsis_gcc.h **** }
 600:Drivers/CMSIS/Include/cmsis_gcc.h **** 
 601:Drivers/CMSIS/Include/cmsis_gcc.h **** 
 602:Drivers/CMSIS/Include/cmsis_gcc.h **** /**
 603:Drivers/CMSIS/Include/cmsis_gcc.h ****   \brief   LDRT Unprivileged (8 bit)
 604:Drivers/CMSIS/Include/cmsis_gcc.h ****   \details Executes a Unprivileged LDRT instruction for 8 bit value.
 605:Drivers/CMSIS/Include/cmsis_gcc.h ****   \param [in]    ptr  Pointer to data
 606:Drivers/CMSIS/Include/cmsis_gcc.h ****   \return             value of type uint8_t at (*ptr)
 607:Drivers/CMSIS/Include/cmsis_gcc.h ****  */
 608:Drivers/CMSIS/Include/cmsis_gcc.h **** __STATIC_FORCEINLINE uint8_t __LDRBT(volatile uint8_t *ptr)
 609:Drivers/CMSIS/Include/cmsis_gcc.h **** {
 610:Drivers/CMSIS/Include/cmsis_gcc.h ****     uint32_t result;
 611:Drivers/CMSIS/Include/cmsis_gcc.h **** 
 612:Drivers/CMSIS/Include/cmsis_gcc.h **** #if (__GNUC__ > 4) || (__GNUC__ == 4 && __GNUC_MINOR__ >= 8)
 613:Drivers/CMSIS/Include/cmsis_gcc.h ****    __ASM volatile ("ldrbt %0, %1" : "=r" (result) : "Q" (*ptr) );
 614:Drivers/CMSIS/Include/cmsis_gcc.h **** #else
 615:Drivers/CMSIS/Include/cmsis_gcc.h ****     /* Prior to GCC 4.8, "Q" will be expanded to [rx, #0] which is not
 616:Drivers/CMSIS/Include/cmsis_gcc.h ****        accepted by assembler. So has to use following less efficient pattern.
 617:Drivers/CMSIS/Include/cmsis_gcc.h ****     */
 618:Drivers/CMSIS/Include/cmsis_gcc.h ****    __ASM volatile ("ldrbt %0, [%1]" : "=r" (result) : "r" (ptr) : "memory" );
 619:Drivers/CMSIS/Include/cmsis_gcc.h **** #endif
ARM GAS  C:\Users\30514\AppData\Local\Temp\ccxdXenu.s 			page 16


 620:Drivers/CMSIS/Include/cmsis_gcc.h ****    return ((uint8_t) result);    /* Add explicit type cast here */
 621:Drivers/CMSIS/Include/cmsis_gcc.h **** }
 622:Drivers/CMSIS/Include/cmsis_gcc.h **** 
 623:Drivers/CMSIS/Include/cmsis_gcc.h **** 
 624:Drivers/CMSIS/Include/cmsis_gcc.h **** /**
 625:Drivers/CMSIS/Include/cmsis_gcc.h ****   \brief   LDRT Unprivileged (16 bit)
 626:Drivers/CMSIS/Include/cmsis_gcc.h ****   \details Executes a Unprivileged LDRT instruction for 16 bit values.
 627:Drivers/CMSIS/Include/cmsis_gcc.h ****   \param [in]    ptr  Pointer to data
 628:Drivers/CMSIS/Include/cmsis_gcc.h ****   \return        value of type uint16_t at (*ptr)
 629:Drivers/CMSIS/Include/cmsis_gcc.h ****  */
 630:Drivers/CMSIS/Include/cmsis_gcc.h **** __STATIC_FORCEINLINE uint16_t __LDRHT(volatile uint16_t *ptr)
 631:Drivers/CMSIS/Include/cmsis_gcc.h **** {
 632:Drivers/CMSIS/Include/cmsis_gcc.h ****     uint32_t result;
 633:Drivers/CMSIS/Include/cmsis_gcc.h **** 
 634:Drivers/CMSIS/Include/cmsis_gcc.h **** #if (__GNUC__ > 4) || (__GNUC__ == 4 && __GNUC_MINOR__ >= 8)
 635:Drivers/CMSIS/Include/cmsis_gcc.h ****    __ASM volatile ("ldrht %0, %1" : "=r" (result) : "Q" (*ptr) );
 636:Drivers/CMSIS/Include/cmsis_gcc.h **** #else
 637:Drivers/CMSIS/Include/cmsis_gcc.h ****     /* Prior to GCC 4.8, "Q" will be expanded to [rx, #0] which is not
 638:Drivers/CMSIS/Include/cmsis_gcc.h ****        accepted by assembler. So has to use following less efficient pattern.
 639:Drivers/CMSIS/Include/cmsis_gcc.h ****     */
 640:Drivers/CMSIS/Include/cmsis_gcc.h ****    __ASM volatile ("ldrht %0, [%1]" : "=r" (result) : "r" (ptr) : "memory" );
 641:Drivers/CMSIS/Include/cmsis_gcc.h **** #endif
 642:Drivers/CMSIS/Include/cmsis_gcc.h ****    return ((uint16_t) result);    /* Add explicit type cast here */
 643:Drivers/CMSIS/Include/cmsis_gcc.h **** }
 644:Drivers/CMSIS/Include/cmsis_gcc.h **** 
 645:Drivers/CMSIS/Include/cmsis_gcc.h **** 
 646:Drivers/CMSIS/Include/cmsis_gcc.h **** /**
 647:Drivers/CMSIS/Include/cmsis_gcc.h ****   \brief   LDRT Unprivileged (32 bit)
 648:Drivers/CMSIS/Include/cmsis_gcc.h ****   \details Executes a Unprivileged LDRT instruction for 32 bit values.
 649:Drivers/CMSIS/Include/cmsis_gcc.h ****   \param [in]    ptr  Pointer to data
 650:Drivers/CMSIS/Include/cmsis_gcc.h ****   \return        value of type uint32_t at (*ptr)
 651:Drivers/CMSIS/Include/cmsis_gcc.h ****  */
 652:Drivers/CMSIS/Include/cmsis_gcc.h **** __STATIC_FORCEINLINE uint32_t __LDRT(volatile uint32_t *ptr)
 653:Drivers/CMSIS/Include/cmsis_gcc.h **** {
 654:Drivers/CMSIS/Include/cmsis_gcc.h ****     uint32_t result;
 655:Drivers/CMSIS/Include/cmsis_gcc.h **** 
 656:Drivers/CMSIS/Include/cmsis_gcc.h ****    __ASM volatile ("ldrt %0, %1" : "=r" (result) : "Q" (*ptr) );
 657:Drivers/CMSIS/Include/cmsis_gcc.h ****    return(result);
 658:Drivers/CMSIS/Include/cmsis_gcc.h **** }
 659:Drivers/CMSIS/Include/cmsis_gcc.h **** 
 660:Drivers/CMSIS/Include/cmsis_gcc.h **** 
 661:Drivers/CMSIS/Include/cmsis_gcc.h **** /**
 662:Drivers/CMSIS/Include/cmsis_gcc.h ****   \brief   STRT Unprivileged (8 bit)
 663:Drivers/CMSIS/Include/cmsis_gcc.h ****   \details Executes a Unprivileged STRT instruction for 8 bit values.
 664:Drivers/CMSIS/Include/cmsis_gcc.h ****   \param [in]  value  Value to store
 665:Drivers/CMSIS/Include/cmsis_gcc.h ****   \param [in]    ptr  Pointer to location
 666:Drivers/CMSIS/Include/cmsis_gcc.h ****  */
 667:Drivers/CMSIS/Include/cmsis_gcc.h **** __STATIC_FORCEINLINE void __STRBT(uint8_t value, volatile uint8_t *ptr)
 668:Drivers/CMSIS/Include/cmsis_gcc.h **** {
 669:Drivers/CMSIS/Include/cmsis_gcc.h ****    __ASM volatile ("strbt %1, %0" : "=Q" (*ptr) : "r" ((uint32_t)value) );
 670:Drivers/CMSIS/Include/cmsis_gcc.h **** }
 671:Drivers/CMSIS/Include/cmsis_gcc.h **** 
 672:Drivers/CMSIS/Include/cmsis_gcc.h **** 
 673:Drivers/CMSIS/Include/cmsis_gcc.h **** /**
 674:Drivers/CMSIS/Include/cmsis_gcc.h ****   \brief   STRT Unprivileged (16 bit)
 675:Drivers/CMSIS/Include/cmsis_gcc.h ****   \details Executes a Unprivileged STRT instruction for 16 bit values.
 676:Drivers/CMSIS/Include/cmsis_gcc.h ****   \param [in]  value  Value to store
ARM GAS  C:\Users\30514\AppData\Local\Temp\ccxdXenu.s 			page 17


 677:Drivers/CMSIS/Include/cmsis_gcc.h ****   \param [in]    ptr  Pointer to location
 678:Drivers/CMSIS/Include/cmsis_gcc.h ****  */
 679:Drivers/CMSIS/Include/cmsis_gcc.h **** __STATIC_FORCEINLINE void __STRHT(uint16_t value, volatile uint16_t *ptr)
 680:Drivers/CMSIS/Include/cmsis_gcc.h **** {
 681:Drivers/CMSIS/Include/cmsis_gcc.h ****    __ASM volatile ("strht %1, %0" : "=Q" (*ptr) : "r" ((uint32_t)value) );
 682:Drivers/CMSIS/Include/cmsis_gcc.h **** }
 683:Drivers/CMSIS/Include/cmsis_gcc.h **** 
 684:Drivers/CMSIS/Include/cmsis_gcc.h **** 
 685:Drivers/CMSIS/Include/cmsis_gcc.h **** /**
 686:Drivers/CMSIS/Include/cmsis_gcc.h ****   \brief   STRT Unprivileged (32 bit)
 687:Drivers/CMSIS/Include/cmsis_gcc.h ****   \details Executes a Unprivileged STRT instruction for 32 bit values.
 688:Drivers/CMSIS/Include/cmsis_gcc.h ****   \param [in]  value  Value to store
 689:Drivers/CMSIS/Include/cmsis_gcc.h ****   \param [in]    ptr  Pointer to location
 690:Drivers/CMSIS/Include/cmsis_gcc.h ****  */
 691:Drivers/CMSIS/Include/cmsis_gcc.h **** __STATIC_FORCEINLINE void __STRT(uint32_t value, volatile uint32_t *ptr)
 692:Drivers/CMSIS/Include/cmsis_gcc.h **** {
 693:Drivers/CMSIS/Include/cmsis_gcc.h ****    __ASM volatile ("strt %1, %0" : "=Q" (*ptr) : "r" (value) );
 694:Drivers/CMSIS/Include/cmsis_gcc.h **** }
 695:Drivers/CMSIS/Include/cmsis_gcc.h **** 
 696:Drivers/CMSIS/Include/cmsis_gcc.h **** #else  /* ((defined (__ARM_ARCH_7M__      ) && (__ARM_ARCH_7M__      == 1)) || \
 697:Drivers/CMSIS/Include/cmsis_gcc.h ****            (defined (__ARM_ARCH_7EM__     ) && (__ARM_ARCH_7EM__     == 1)) || \
 698:Drivers/CMSIS/Include/cmsis_gcc.h ****            (defined (__ARM_ARCH_8M_MAIN__ ) && (__ARM_ARCH_8M_MAIN__ == 1))    ) */
 699:Drivers/CMSIS/Include/cmsis_gcc.h **** 
 700:Drivers/CMSIS/Include/cmsis_gcc.h **** /**
 701:Drivers/CMSIS/Include/cmsis_gcc.h ****   \brief   Signed Saturate
 702:Drivers/CMSIS/Include/cmsis_gcc.h ****   \details Saturates a signed value.
 703:Drivers/CMSIS/Include/cmsis_gcc.h ****   \param [in]  value  Value to be saturated
 704:Drivers/CMSIS/Include/cmsis_gcc.h ****   \param [in]    sat  Bit position to saturate to (1..32)
 705:Drivers/CMSIS/Include/cmsis_gcc.h ****   \return             Saturated value
 706:Drivers/CMSIS/Include/cmsis_gcc.h ****  */
 707:Drivers/CMSIS/Include/cmsis_gcc.h **** __STATIC_FORCEINLINE int32_t __SSAT(int32_t val, uint32_t sat)
 708:Drivers/CMSIS/Include/cmsis_gcc.h **** {
 709:Drivers/CMSIS/Include/cmsis_gcc.h ****   if ((sat >= 1U) && (sat <= 32U))
 710:Drivers/CMSIS/Include/cmsis_gcc.h ****   {
 711:Drivers/CMSIS/Include/cmsis_gcc.h ****     const int32_t max = (int32_t)((1U << (sat - 1U)) - 1U);
 712:Drivers/CMSIS/Include/cmsis_gcc.h ****     const int32_t min = -1 - max ;
 713:Drivers/CMSIS/Include/cmsis_gcc.h ****     if (val > max)
 714:Drivers/CMSIS/Include/cmsis_gcc.h ****     {
 715:Drivers/CMSIS/Include/cmsis_gcc.h ****       return max;
 716:Drivers/CMSIS/Include/cmsis_gcc.h ****     }
 717:Drivers/CMSIS/Include/cmsis_gcc.h ****     else if (val < min)
 718:Drivers/CMSIS/Include/cmsis_gcc.h ****     {
 719:Drivers/CMSIS/Include/cmsis_gcc.h ****       return min;
 720:Drivers/CMSIS/Include/cmsis_gcc.h ****     }
 721:Drivers/CMSIS/Include/cmsis_gcc.h ****   }
 722:Drivers/CMSIS/Include/cmsis_gcc.h ****   return val;
 723:Drivers/CMSIS/Include/cmsis_gcc.h **** }
 724:Drivers/CMSIS/Include/cmsis_gcc.h **** 
 725:Drivers/CMSIS/Include/cmsis_gcc.h **** /**
 726:Drivers/CMSIS/Include/cmsis_gcc.h ****   \brief   Unsigned Saturate
 727:Drivers/CMSIS/Include/cmsis_gcc.h ****   \details Saturates an unsigned value.
 728:Drivers/CMSIS/Include/cmsis_gcc.h ****   \param [in]  value  Value to be saturated
 729:Drivers/CMSIS/Include/cmsis_gcc.h ****   \param [in]    sat  Bit position to saturate to (0..31)
 730:Drivers/CMSIS/Include/cmsis_gcc.h ****   \return             Saturated value
 731:Drivers/CMSIS/Include/cmsis_gcc.h ****  */
 732:Drivers/CMSIS/Include/cmsis_gcc.h **** __STATIC_FORCEINLINE uint32_t __USAT(int32_t val, uint32_t sat)
 733:Drivers/CMSIS/Include/cmsis_gcc.h **** {
ARM GAS  C:\Users\30514\AppData\Local\Temp\ccxdXenu.s 			page 18


 734:Drivers/CMSIS/Include/cmsis_gcc.h ****   if (sat <= 31U)
 735:Drivers/CMSIS/Include/cmsis_gcc.h ****   {
 736:Drivers/CMSIS/Include/cmsis_gcc.h ****     const uint32_t max = ((1U << sat) - 1U);
 737:Drivers/CMSIS/Include/cmsis_gcc.h ****     if (val > (int32_t)max)
 738:Drivers/CMSIS/Include/cmsis_gcc.h ****     {
 739:Drivers/CMSIS/Include/cmsis_gcc.h ****       return max;
 740:Drivers/CMSIS/Include/cmsis_gcc.h ****     }
 741:Drivers/CMSIS/Include/cmsis_gcc.h ****     else if (val < 0)
 742:Drivers/CMSIS/Include/cmsis_gcc.h ****     {
 743:Drivers/CMSIS/Include/cmsis_gcc.h ****       return 0U;
 744:Drivers/CMSIS/Include/cmsis_gcc.h ****     }
 745:Drivers/CMSIS/Include/cmsis_gcc.h ****   }
 746:Drivers/CMSIS/Include/cmsis_gcc.h ****   return (uint32_t)val;
 747:Drivers/CMSIS/Include/cmsis_gcc.h **** }
 748:Drivers/CMSIS/Include/cmsis_gcc.h **** 
 749:Drivers/CMSIS/Include/cmsis_gcc.h **** #endif /* ((defined (__ARM_ARCH_7M__      ) && (__ARM_ARCH_7M__      == 1)) || \
 750:Drivers/CMSIS/Include/cmsis_gcc.h ****            (defined (__ARM_ARCH_7EM__     ) && (__ARM_ARCH_7EM__     == 1)) || \
 751:Drivers/CMSIS/Include/cmsis_gcc.h ****            (defined (__ARM_ARCH_8M_MAIN__ ) && (__ARM_ARCH_8M_MAIN__ == 1))    ) */
 752:Drivers/CMSIS/Include/cmsis_gcc.h **** 
 753:Drivers/CMSIS/Include/cmsis_gcc.h **** 
 754:Drivers/CMSIS/Include/cmsis_gcc.h **** #if ((defined (__ARM_ARCH_8M_MAIN__ ) && (__ARM_ARCH_8M_MAIN__ == 1)) || \
 755:Drivers/CMSIS/Include/cmsis_gcc.h ****      (defined (__ARM_ARCH_8M_BASE__ ) && (__ARM_ARCH_8M_BASE__ == 1))    )
 756:Drivers/CMSIS/Include/cmsis_gcc.h **** /**
 757:Drivers/CMSIS/Include/cmsis_gcc.h ****   \brief   Load-Acquire (8 bit)
 758:Drivers/CMSIS/Include/cmsis_gcc.h ****   \details Executes a LDAB instruction for 8 bit value.
 759:Drivers/CMSIS/Include/cmsis_gcc.h ****   \param [in]    ptr  Pointer to data
 760:Drivers/CMSIS/Include/cmsis_gcc.h ****   \return             value of type uint8_t at (*ptr)
 761:Drivers/CMSIS/Include/cmsis_gcc.h ****  */
 762:Drivers/CMSIS/Include/cmsis_gcc.h **** __STATIC_FORCEINLINE uint8_t __LDAB(volatile uint8_t *ptr)
 763:Drivers/CMSIS/Include/cmsis_gcc.h **** {
 764:Drivers/CMSIS/Include/cmsis_gcc.h ****     uint32_t result;
 765:Drivers/CMSIS/Include/cmsis_gcc.h **** 
 766:Drivers/CMSIS/Include/cmsis_gcc.h ****    __ASM volatile ("ldab %0, %1" : "=r" (result) : "Q" (*ptr) : "memory" );
 767:Drivers/CMSIS/Include/cmsis_gcc.h ****    return ((uint8_t) result);
 768:Drivers/CMSIS/Include/cmsis_gcc.h **** }
 769:Drivers/CMSIS/Include/cmsis_gcc.h **** 
 770:Drivers/CMSIS/Include/cmsis_gcc.h **** 
 771:Drivers/CMSIS/Include/cmsis_gcc.h **** /**
 772:Drivers/CMSIS/Include/cmsis_gcc.h ****   \brief   Load-Acquire (16 bit)
 773:Drivers/CMSIS/Include/cmsis_gcc.h ****   \details Executes a LDAH instruction for 16 bit values.
 774:Drivers/CMSIS/Include/cmsis_gcc.h ****   \param [in]    ptr  Pointer to data
 775:Drivers/CMSIS/Include/cmsis_gcc.h ****   \return        value of type uint16_t at (*ptr)
 776:Drivers/CMSIS/Include/cmsis_gcc.h ****  */
 777:Drivers/CMSIS/Include/cmsis_gcc.h **** __STATIC_FORCEINLINE uint16_t __LDAH(volatile uint16_t *ptr)
 778:Drivers/CMSIS/Include/cmsis_gcc.h **** {
 779:Drivers/CMSIS/Include/cmsis_gcc.h ****     uint32_t result;
 780:Drivers/CMSIS/Include/cmsis_gcc.h **** 
 781:Drivers/CMSIS/Include/cmsis_gcc.h ****    __ASM volatile ("ldah %0, %1" : "=r" (result) : "Q" (*ptr) : "memory" );
 782:Drivers/CMSIS/Include/cmsis_gcc.h ****    return ((uint16_t) result);
 783:Drivers/CMSIS/Include/cmsis_gcc.h **** }
 784:Drivers/CMSIS/Include/cmsis_gcc.h **** 
 785:Drivers/CMSIS/Include/cmsis_gcc.h **** 
 786:Drivers/CMSIS/Include/cmsis_gcc.h **** /**
 787:Drivers/CMSIS/Include/cmsis_gcc.h ****   \brief   Load-Acquire (32 bit)
 788:Drivers/CMSIS/Include/cmsis_gcc.h ****   \details Executes a LDA instruction for 32 bit values.
 789:Drivers/CMSIS/Include/cmsis_gcc.h ****   \param [in]    ptr  Pointer to data
 790:Drivers/CMSIS/Include/cmsis_gcc.h ****   \return        value of type uint32_t at (*ptr)
ARM GAS  C:\Users\30514\AppData\Local\Temp\ccxdXenu.s 			page 19


 791:Drivers/CMSIS/Include/cmsis_gcc.h ****  */
 792:Drivers/CMSIS/Include/cmsis_gcc.h **** __STATIC_FORCEINLINE uint32_t __LDA(volatile uint32_t *ptr)
 793:Drivers/CMSIS/Include/cmsis_gcc.h **** {
 794:Drivers/CMSIS/Include/cmsis_gcc.h ****     uint32_t result;
 795:Drivers/CMSIS/Include/cmsis_gcc.h **** 
 796:Drivers/CMSIS/Include/cmsis_gcc.h ****    __ASM volatile ("lda %0, %1" : "=r" (result) : "Q" (*ptr) : "memory" );
 797:Drivers/CMSIS/Include/cmsis_gcc.h ****    return(result);
 798:Drivers/CMSIS/Include/cmsis_gcc.h **** }
 799:Drivers/CMSIS/Include/cmsis_gcc.h **** 
 800:Drivers/CMSIS/Include/cmsis_gcc.h **** 
 801:Drivers/CMSIS/Include/cmsis_gcc.h **** /**
 802:Drivers/CMSIS/Include/cmsis_gcc.h ****   \brief   Store-Release (8 bit)
 803:Drivers/CMSIS/Include/cmsis_gcc.h ****   \details Executes a STLB instruction for 8 bit values.
 804:Drivers/CMSIS/Include/cmsis_gcc.h ****   \param [in]  value  Value to store
 805:Drivers/CMSIS/Include/cmsis_gcc.h ****   \param [in]    ptr  Pointer to location
 806:Drivers/CMSIS/Include/cmsis_gcc.h ****  */
 807:Drivers/CMSIS/Include/cmsis_gcc.h **** __STATIC_FORCEINLINE void __STLB(uint8_t value, volatile uint8_t *ptr)
 808:Drivers/CMSIS/Include/cmsis_gcc.h **** {
 809:Drivers/CMSIS/Include/cmsis_gcc.h ****    __ASM volatile ("stlb %1, %0" : "=Q" (*ptr) : "r" ((uint32_t)value) : "memory" );
 810:Drivers/CMSIS/Include/cmsis_gcc.h **** }
 811:Drivers/CMSIS/Include/cmsis_gcc.h **** 
 812:Drivers/CMSIS/Include/cmsis_gcc.h **** 
 813:Drivers/CMSIS/Include/cmsis_gcc.h **** /**
 814:Drivers/CMSIS/Include/cmsis_gcc.h ****   \brief   Store-Release (16 bit)
 815:Drivers/CMSIS/Include/cmsis_gcc.h ****   \details Executes a STLH instruction for 16 bit values.
 816:Drivers/CMSIS/Include/cmsis_gcc.h ****   \param [in]  value  Value to store
 817:Drivers/CMSIS/Include/cmsis_gcc.h ****   \param [in]    ptr  Pointer to location
 818:Drivers/CMSIS/Include/cmsis_gcc.h ****  */
 819:Drivers/CMSIS/Include/cmsis_gcc.h **** __STATIC_FORCEINLINE void __STLH(uint16_t value, volatile uint16_t *ptr)
 820:Drivers/CMSIS/Include/cmsis_gcc.h **** {
 821:Drivers/CMSIS/Include/cmsis_gcc.h ****    __ASM volatile ("stlh %1, %0" : "=Q" (*ptr) : "r" ((uint32_t)value) : "memory" );
 822:Drivers/CMSIS/Include/cmsis_gcc.h **** }
 823:Drivers/CMSIS/Include/cmsis_gcc.h **** 
 824:Drivers/CMSIS/Include/cmsis_gcc.h **** 
 825:Drivers/CMSIS/Include/cmsis_gcc.h **** /**
 826:Drivers/CMSIS/Include/cmsis_gcc.h ****   \brief   Store-Release (32 bit)
 827:Drivers/CMSIS/Include/cmsis_gcc.h ****   \details Executes a STL instruction for 32 bit values.
 828:Drivers/CMSIS/Include/cmsis_gcc.h ****   \param [in]  value  Value to store
 829:Drivers/CMSIS/Include/cmsis_gcc.h ****   \param [in]    ptr  Pointer to location
 830:Drivers/CMSIS/Include/cmsis_gcc.h ****  */
 831:Drivers/CMSIS/Include/cmsis_gcc.h **** __STATIC_FORCEINLINE void __STL(uint32_t value, volatile uint32_t *ptr)
 832:Drivers/CMSIS/Include/cmsis_gcc.h **** {
 833:Drivers/CMSIS/Include/cmsis_gcc.h ****    __ASM volatile ("stl %1, %0" : "=Q" (*ptr) : "r" ((uint32_t)value) : "memory" );
 834:Drivers/CMSIS/Include/cmsis_gcc.h **** }
 835:Drivers/CMSIS/Include/cmsis_gcc.h **** 
 836:Drivers/CMSIS/Include/cmsis_gcc.h **** 
 837:Drivers/CMSIS/Include/cmsis_gcc.h **** /**
 838:Drivers/CMSIS/Include/cmsis_gcc.h ****   \brief   Load-Acquire Exclusive (8 bit)
 839:Drivers/CMSIS/Include/cmsis_gcc.h ****   \details Executes a LDAB exclusive instruction for 8 bit value.
 840:Drivers/CMSIS/Include/cmsis_gcc.h ****   \param [in]    ptr  Pointer to data
 841:Drivers/CMSIS/Include/cmsis_gcc.h ****   \return             value of type uint8_t at (*ptr)
 842:Drivers/CMSIS/Include/cmsis_gcc.h ****  */
 843:Drivers/CMSIS/Include/cmsis_gcc.h **** __STATIC_FORCEINLINE uint8_t __LDAEXB(volatile uint8_t *ptr)
 844:Drivers/CMSIS/Include/cmsis_gcc.h **** {
 845:Drivers/CMSIS/Include/cmsis_gcc.h ****     uint32_t result;
 846:Drivers/CMSIS/Include/cmsis_gcc.h **** 
 847:Drivers/CMSIS/Include/cmsis_gcc.h ****    __ASM volatile ("ldaexb %0, %1" : "=r" (result) : "Q" (*ptr) : "memory" );
ARM GAS  C:\Users\30514\AppData\Local\Temp\ccxdXenu.s 			page 20


 848:Drivers/CMSIS/Include/cmsis_gcc.h ****    return ((uint8_t) result);
 849:Drivers/CMSIS/Include/cmsis_gcc.h **** }
 850:Drivers/CMSIS/Include/cmsis_gcc.h **** 
 851:Drivers/CMSIS/Include/cmsis_gcc.h **** 
 852:Drivers/CMSIS/Include/cmsis_gcc.h **** /**
 853:Drivers/CMSIS/Include/cmsis_gcc.h ****   \brief   Load-Acquire Exclusive (16 bit)
 854:Drivers/CMSIS/Include/cmsis_gcc.h ****   \details Executes a LDAH exclusive instruction for 16 bit values.
 855:Drivers/CMSIS/Include/cmsis_gcc.h ****   \param [in]    ptr  Pointer to data
 856:Drivers/CMSIS/Include/cmsis_gcc.h ****   \return        value of type uint16_t at (*ptr)
 857:Drivers/CMSIS/Include/cmsis_gcc.h ****  */
 858:Drivers/CMSIS/Include/cmsis_gcc.h **** __STATIC_FORCEINLINE uint16_t __LDAEXH(volatile uint16_t *ptr)
 859:Drivers/CMSIS/Include/cmsis_gcc.h **** {
 860:Drivers/CMSIS/Include/cmsis_gcc.h ****     uint32_t result;
 861:Drivers/CMSIS/Include/cmsis_gcc.h **** 
 862:Drivers/CMSIS/Include/cmsis_gcc.h ****    __ASM volatile ("ldaexh %0, %1" : "=r" (result) : "Q" (*ptr) : "memory" );
 863:Drivers/CMSIS/Include/cmsis_gcc.h ****    return ((uint16_t) result);
 864:Drivers/CMSIS/Include/cmsis_gcc.h **** }
 865:Drivers/CMSIS/Include/cmsis_gcc.h **** 
 866:Drivers/CMSIS/Include/cmsis_gcc.h **** 
 867:Drivers/CMSIS/Include/cmsis_gcc.h **** /**
 868:Drivers/CMSIS/Include/cmsis_gcc.h ****   \brief   Load-Acquire Exclusive (32 bit)
 869:Drivers/CMSIS/Include/cmsis_gcc.h ****   \details Executes a LDA exclusive instruction for 32 bit values.
 870:Drivers/CMSIS/Include/cmsis_gcc.h ****   \param [in]    ptr  Pointer to data
 871:Drivers/CMSIS/Include/cmsis_gcc.h ****   \return        value of type uint32_t at (*ptr)
 872:Drivers/CMSIS/Include/cmsis_gcc.h ****  */
 873:Drivers/CMSIS/Include/cmsis_gcc.h **** __STATIC_FORCEINLINE uint32_t __LDAEX(volatile uint32_t *ptr)
 874:Drivers/CMSIS/Include/cmsis_gcc.h **** {
 875:Drivers/CMSIS/Include/cmsis_gcc.h ****     uint32_t result;
 876:Drivers/CMSIS/Include/cmsis_gcc.h **** 
 877:Drivers/CMSIS/Include/cmsis_gcc.h ****    __ASM volatile ("ldaex %0, %1" : "=r" (result) : "Q" (*ptr) : "memory" );
 878:Drivers/CMSIS/Include/cmsis_gcc.h ****    return(result);
 879:Drivers/CMSIS/Include/cmsis_gcc.h **** }
 880:Drivers/CMSIS/Include/cmsis_gcc.h **** 
 881:Drivers/CMSIS/Include/cmsis_gcc.h **** 
 882:Drivers/CMSIS/Include/cmsis_gcc.h **** /**
 883:Drivers/CMSIS/Include/cmsis_gcc.h ****   \brief   Store-Release Exclusive (8 bit)
 884:Drivers/CMSIS/Include/cmsis_gcc.h ****   \details Executes a STLB exclusive instruction for 8 bit values.
 885:Drivers/CMSIS/Include/cmsis_gcc.h ****   \param [in]  value  Value to store
 886:Drivers/CMSIS/Include/cmsis_gcc.h ****   \param [in]    ptr  Pointer to location
 887:Drivers/CMSIS/Include/cmsis_gcc.h ****   \return          0  Function succeeded
 888:Drivers/CMSIS/Include/cmsis_gcc.h ****   \return          1  Function failed
 889:Drivers/CMSIS/Include/cmsis_gcc.h ****  */
 890:Drivers/CMSIS/Include/cmsis_gcc.h **** __STATIC_FORCEINLINE uint32_t __STLEXB(uint8_t value, volatile uint8_t *ptr)
 891:Drivers/CMSIS/Include/cmsis_gcc.h **** {
 892:Drivers/CMSIS/Include/cmsis_gcc.h ****    uint32_t result;
 893:Drivers/CMSIS/Include/cmsis_gcc.h **** 
 894:Drivers/CMSIS/Include/cmsis_gcc.h ****    __ASM volatile ("stlexb %0, %2, %1" : "=&r" (result), "=Q" (*ptr) : "r" ((uint32_t)value) : "mem
 895:Drivers/CMSIS/Include/cmsis_gcc.h ****    return(result);
 896:Drivers/CMSIS/Include/cmsis_gcc.h **** }
 897:Drivers/CMSIS/Include/cmsis_gcc.h **** 
 898:Drivers/CMSIS/Include/cmsis_gcc.h **** 
 899:Drivers/CMSIS/Include/cmsis_gcc.h **** /**
 900:Drivers/CMSIS/Include/cmsis_gcc.h ****   \brief   Store-Release Exclusive (16 bit)
 901:Drivers/CMSIS/Include/cmsis_gcc.h ****   \details Executes a STLH exclusive instruction for 16 bit values.
 902:Drivers/CMSIS/Include/cmsis_gcc.h ****   \param [in]  value  Value to store
 903:Drivers/CMSIS/Include/cmsis_gcc.h ****   \param [in]    ptr  Pointer to location
 904:Drivers/CMSIS/Include/cmsis_gcc.h ****   \return          0  Function succeeded
ARM GAS  C:\Users\30514\AppData\Local\Temp\ccxdXenu.s 			page 21


 905:Drivers/CMSIS/Include/cmsis_gcc.h ****   \return          1  Function failed
 906:Drivers/CMSIS/Include/cmsis_gcc.h ****  */
 907:Drivers/CMSIS/Include/cmsis_gcc.h **** __STATIC_FORCEINLINE uint32_t __STLEXH(uint16_t value, volatile uint16_t *ptr)
 908:Drivers/CMSIS/Include/cmsis_gcc.h **** {
 909:Drivers/CMSIS/Include/cmsis_gcc.h ****    uint32_t result;
 910:Drivers/CMSIS/Include/cmsis_gcc.h **** 
 911:Drivers/CMSIS/Include/cmsis_gcc.h ****    __ASM volatile ("stlexh %0, %2, %1" : "=&r" (result), "=Q" (*ptr) : "r" ((uint32_t)value) : "mem
 912:Drivers/CMSIS/Include/cmsis_gcc.h ****    return(result);
 913:Drivers/CMSIS/Include/cmsis_gcc.h **** }
 914:Drivers/CMSIS/Include/cmsis_gcc.h **** 
 915:Drivers/CMSIS/Include/cmsis_gcc.h **** 
 916:Drivers/CMSIS/Include/cmsis_gcc.h **** /**
 917:Drivers/CMSIS/Include/cmsis_gcc.h ****   \brief   Store-Release Exclusive (32 bit)
 918:Drivers/CMSIS/Include/cmsis_gcc.h ****   \details Executes a STL exclusive instruction for 32 bit values.
 919:Drivers/CMSIS/Include/cmsis_gcc.h ****   \param [in]  value  Value to store
 920:Drivers/CMSIS/Include/cmsis_gcc.h ****   \param [in]    ptr  Pointer to location
 921:Drivers/CMSIS/Include/cmsis_gcc.h ****   \return          0  Function succeeded
 922:Drivers/CMSIS/Include/cmsis_gcc.h ****   \return          1  Function failed
 923:Drivers/CMSIS/Include/cmsis_gcc.h ****  */
 924:Drivers/CMSIS/Include/cmsis_gcc.h **** __STATIC_FORCEINLINE uint32_t __STLEX(uint32_t value, volatile uint32_t *ptr)
 925:Drivers/CMSIS/Include/cmsis_gcc.h **** {
 926:Drivers/CMSIS/Include/cmsis_gcc.h ****    uint32_t result;
 927:Drivers/CMSIS/Include/cmsis_gcc.h **** 
 928:Drivers/CMSIS/Include/cmsis_gcc.h ****    __ASM volatile ("stlex %0, %2, %1" : "=&r" (result), "=Q" (*ptr) : "r" ((uint32_t)value) : "memo
 929:Drivers/CMSIS/Include/cmsis_gcc.h ****    return(result);
 930:Drivers/CMSIS/Include/cmsis_gcc.h **** }
 931:Drivers/CMSIS/Include/cmsis_gcc.h **** 
 932:Drivers/CMSIS/Include/cmsis_gcc.h **** #endif /* ((defined (__ARM_ARCH_8M_MAIN__ ) && (__ARM_ARCH_8M_MAIN__ == 1)) || \
 933:Drivers/CMSIS/Include/cmsis_gcc.h ****            (defined (__ARM_ARCH_8M_BASE__ ) && (__ARM_ARCH_8M_BASE__ == 1))    ) */
 934:Drivers/CMSIS/Include/cmsis_gcc.h **** 
 935:Drivers/CMSIS/Include/cmsis_gcc.h **** /*@}*/ /* end of group CMSIS_Core_InstructionInterface */
 936:Drivers/CMSIS/Include/cmsis_gcc.h **** 
 937:Drivers/CMSIS/Include/cmsis_gcc.h **** 
 938:Drivers/CMSIS/Include/cmsis_gcc.h **** /* ###########################  Core Function Access  ########################### */
 939:Drivers/CMSIS/Include/cmsis_gcc.h **** /** \ingroup  CMSIS_Core_FunctionInterface
 940:Drivers/CMSIS/Include/cmsis_gcc.h ****     \defgroup CMSIS_Core_RegAccFunctions CMSIS Core Register Access Functions
 941:Drivers/CMSIS/Include/cmsis_gcc.h ****   @{
 942:Drivers/CMSIS/Include/cmsis_gcc.h ****  */
 943:Drivers/CMSIS/Include/cmsis_gcc.h **** 
 944:Drivers/CMSIS/Include/cmsis_gcc.h **** /**
 945:Drivers/CMSIS/Include/cmsis_gcc.h ****   \brief   Enable IRQ Interrupts
 946:Drivers/CMSIS/Include/cmsis_gcc.h ****   \details Enables IRQ interrupts by clearing special-purpose register PRIMASK.
 947:Drivers/CMSIS/Include/cmsis_gcc.h ****            Can only be executed in Privileged modes.
 948:Drivers/CMSIS/Include/cmsis_gcc.h ****  */
 949:Drivers/CMSIS/Include/cmsis_gcc.h **** __STATIC_FORCEINLINE void __enable_irq(void)
 950:Drivers/CMSIS/Include/cmsis_gcc.h **** {
 951:Drivers/CMSIS/Include/cmsis_gcc.h ****   __ASM volatile ("cpsie i" : : : "memory");
 952:Drivers/CMSIS/Include/cmsis_gcc.h **** }
 953:Drivers/CMSIS/Include/cmsis_gcc.h **** 
 954:Drivers/CMSIS/Include/cmsis_gcc.h **** 
 955:Drivers/CMSIS/Include/cmsis_gcc.h **** /**
 956:Drivers/CMSIS/Include/cmsis_gcc.h ****   \brief   Disable IRQ Interrupts
 957:Drivers/CMSIS/Include/cmsis_gcc.h ****   \details Disables IRQ interrupts by setting special-purpose register PRIMASK.
 958:Drivers/CMSIS/Include/cmsis_gcc.h ****            Can only be executed in Privileged modes.
 959:Drivers/CMSIS/Include/cmsis_gcc.h ****  */
 960:Drivers/CMSIS/Include/cmsis_gcc.h **** __STATIC_FORCEINLINE void __disable_irq(void)
 176              		.loc 2 960 27 view .LVU31
ARM GAS  C:\Users\30514\AppData\Local\Temp\ccxdXenu.s 			page 22


 177              	.LBB7:
 961:Drivers/CMSIS/Include/cmsis_gcc.h **** {
 962:Drivers/CMSIS/Include/cmsis_gcc.h ****   __ASM volatile ("cpsid i" : : : "memory");
 178              		.loc 2 962 3 view .LVU32
 179              		.syntax unified
 180              	@ 962 "Drivers/CMSIS/Include/cmsis_gcc.h" 1
 181 0006 72B6     		cpsid i
 182              	@ 0 "" 2
 183              		.thumb
 184              		.syntax unified
 185              	.LBE7:
 186              	.LBE6:
  63:Module/remote_control/remote_control.c ****     memcpy(&copy,&rc_ctrl,sizeof(rc_ctrl));
 187              		.loc 1 63 5 view .LVU33
 188 0008 EE46     		mov	lr, sp
 189 000a 104C     		ldr	r4, .L13
 190 000c 0FCC     		ldmia	r4!, {r0, r1, r2, r3}
 191              	.LVL4:
 192              		.loc 1 63 5 is_stmt 0 view .LVU34
 193 000e AEE80F00 		stmia	lr!, {r0, r1, r2, r3}
 194 0012 94E80300 		ldm	r4, {r0, r1}
 195 0016 4EF8040B 		str	r0, [lr], #4
 196 001a AEF80010 		strh	r1, [lr]	@ movhi
  64:Module/remote_control/remote_control.c ****     __enable_irq();
 197              		.loc 1 64 5 is_stmt 1 view .LVU35
 198              	.LBB8:
 199              	.LBI8:
 949:Drivers/CMSIS/Include/cmsis_gcc.h **** {
 200              		.loc 2 949 27 view .LVU36
 201              	.LBB9:
 951:Drivers/CMSIS/Include/cmsis_gcc.h **** }
 202              		.loc 2 951 3 view .LVU37
 203              		.syntax unified
 204              	@ 951 "Drivers/CMSIS/Include/cmsis_gcc.h" 1
 205 001e 62B6     		cpsie i
 206              	@ 0 "" 2
 207              		.thumb
 208              		.syntax unified
 209              	.LBE9:
 210              	.LBE8:
  65:Module/remote_control/remote_control.c ****     return copy;
 211              		.loc 1 65 5 view .LVU38
 212              		.loc 1 65 12 is_stmt 0 view .LVU39
 213 0020 EE46     		mov	lr, sp
 214 0022 BEE80F00 		ldmia	lr!, {r0, r1, r2, r3}
 215 0026 CCF80000 		str	r0, [ip]	@ unaligned
 216 002a CCF80410 		str	r1, [ip, #4]	@ unaligned
 217 002e CCF80820 		str	r2, [ip, #8]	@ unaligned
 218 0032 CCF80C30 		str	r3, [ip, #12]	@ unaligned
 219 0036 DEF80000 		ldr	r0, [lr]
 220 003a CCF81000 		str	r0, [ip, #16]	@ unaligned
 221 003e BEF80430 		ldrh	r3, [lr, #4]	@ unaligned
 222 0042 ACF81430 		strh	r3, [ip, #20]	@ unaligned
  66:Module/remote_control/remote_control.c **** }
 223              		.loc 1 66 1 view .LVU40
 224 0046 6046     		mov	r0, ip
 225 0048 06B0     		add	sp, sp, #24
ARM GAS  C:\Users\30514\AppData\Local\Temp\ccxdXenu.s 			page 23


 226              	.LCFI5:
 227              		.cfi_def_cfa_offset 8
 228              		@ sp needed
 229 004a 10BD     		pop	{r4, pc}
 230              	.L14:
 231              		.align	2
 232              	.L13:
 233 004c 00000000 		.word	rc_ctrl
 234              		.cfi_endproc
 235              	.LFE136:
 237              		.section	.text.sbus_to_rc,"ax",%progbits
 238              		.align	1
 239              		.global	sbus_to_rc
 240              		.syntax unified
 241              		.thumb
 242              		.thumb_func
 244              	sbus_to_rc:
 245              	.LVL5:
 246              	.LFB137:
  67:Module/remote_control/remote_control.c **** 
  68:Module/remote_control/remote_control.c **** /**
  69:Module/remote_control/remote_control.c ****   * å­—èŠ‚0: 0x0F (å¸§å¤´)
  70:Module/remote_control/remote_control.c ****   * å­—èŠ‚1-5: é€šé“0-3
  71:Module/remote_control/remote_control.c ****   * å­—èŠ‚6-7: é¼ æ ‡X
  72:Module/remote_control/remote_control.c ****   * å­—èŠ‚8-9: é¼ æ ‡Y
  73:Module/remote_control/remote_control.c ****   * å­—èŠ‚10-11: é¼ æ ‡æ»šè½®
  74:Module/remote_control/remote_control.c ****   * å­—èŠ‚12: é¼ æ ‡å·¦é”®
  75:Module/remote_control/remote_control.c ****   * å­—èŠ‚13: é¼ æ ‡å³é”®
  76:Module/remote_control/remote_control.c ****   * å­—èŠ‚14-15: é”®ç›˜å€¼
  77:Module/remote_control/remote_control.c ****   * å­—èŠ‚16-17: é€šé“4
  78:Module/remote_control/remote_control.c ****   * å­—èŠ‚18-22: ä¿ç•™ (å¯èƒ½ç”¨äºŽæ‰©å±•é€šé“)
  79:Module/remote_control/remote_control.c ****   * å­—èŠ‚23: çŠ¶æ€å­—èŠ‚ (0x08: failsafe, 0x04: frame lost)
  80:Module/remote_control/remote_control.c ****   * å­—èŠ‚24: 0x00 (å¸§å°¾)
  81:Module/remote_control/remote_control.c ****   */
  82:Module/remote_control/remote_control.c **** //åè®®è§£æžæµç¨‹ï¼Œé€‚é…å¤§ç–†é¥æŽ§å™¨
  83:Module/remote_control/remote_control.c **** void sbus_to_rc(volatile const uint8_t *sbus_buf, RC_ctrl_t *rc_ctrl)
  84:Module/remote_control/remote_control.c **** {
 247              		.loc 1 84 1 is_stmt 1 view -0
 248              		.cfi_startproc
 249              		@ args = 0, pretend = 0, frame = 0
 250              		@ frame_needed = 0, uses_anonymous_args = 0
  85:Module/remote_control/remote_control.c ****     //é˜²æ­¢ç©ºæŒ‡é’ˆå¯¼è‡´çš„ç¨‹åºå´©æºƒ
  86:Module/remote_control/remote_control.c ****     if (sbus_buf == NULL || rc_ctrl == NULL)
 251              		.loc 1 86 5 view .LVU42
 252              		.loc 1 86 8 is_stmt 0 view .LVU43
 253 0000 0028     		cmp	r0, #0
 254 0002 6BD0     		beq	.L18
 255 0004 0346     		mov	r3, r0
 256              		.loc 1 86 26 discriminator 1 view .LVU44
 257 0006 0029     		cmp	r1, #0
 258 0008 68D0     		beq	.L18
  84:Module/remote_control/remote_control.c ****     //é˜²æ­¢ç©ºæŒ‡é’ˆå¯¼è‡´çš„ç¨‹åºå´©æºƒ
 259              		.loc 1 84 1 view .LVU45
 260 000a 30B5     		push	{r4, r5, lr}
 261              	.LCFI6:
 262              		.cfi_def_cfa_offset 12
 263              		.cfi_offset 4, -12
ARM GAS  C:\Users\30514\AppData\Local\Temp\ccxdXenu.s 			page 24


 264              		.cfi_offset 5, -8
 265              		.cfi_offset 14, -4
  87:Module/remote_control/remote_control.c ****     {
  88:Module/remote_control/remote_control.c ****         return;
  89:Module/remote_control/remote_control.c ****     }
  90:Module/remote_control/remote_control.c **** 
  91:Module/remote_control/remote_control.c ****     rc_ctrl->rc.ch[0] = (sbus_buf[0] | (sbus_buf[1] << 8)) & 0x07ff;        //!< Channel 0
 266              		.loc 1 91 5 is_stmt 1 view .LVU46
 267              		.loc 1 91 34 is_stmt 0 view .LVU47
 268 000c 0478     		ldrb	r4, [r0]	@ zero_extendqisi2
 269              		.loc 1 91 49 view .LVU48
 270 000e 4278     		ldrb	r2, [r0, #1]	@ zero_extendqisi2
 271              		.loc 1 91 38 view .LVU49
 272 0010 44EA0224 		orr	r4, r4, r2, lsl #8
 273              		.loc 1 91 60 view .LVU50
 274 0014 C4F30A04 		ubfx	r4, r4, #0, #11
 275              		.loc 1 91 23 view .LVU51
 276 0018 0C80     		strh	r4, [r1]	@ unaligned
  92:Module/remote_control/remote_control.c ****     rc_ctrl->rc.ch[1] = ((sbus_buf[1] >> 3) | (sbus_buf[2] << 5)) & 0x07ff; //!< Channel 1
 277              		.loc 1 92 5 is_stmt 1 view .LVU52
 278              		.loc 1 92 35 is_stmt 0 view .LVU53
 279 001a 4278     		ldrb	r2, [r0, #1]	@ zero_extendqisi2
 280              		.loc 1 92 56 view .LVU54
 281 001c 90F802E0 		ldrb	lr, [r0, #2]	@ zero_extendqisi2
 282              		.loc 1 92 45 view .LVU55
 283 0020 4FEA4E1E 		lsl	lr, lr, #5
 284 0024 4EEAD20E 		orr	lr, lr, r2, lsr #3
 285              		.loc 1 92 67 view .LVU56
 286 0028 CEF30A0E 		ubfx	lr, lr, #0, #11
 287              		.loc 1 92 23 view .LVU57
 288 002c A1F802E0 		strh	lr, [r1, #2]	@ unaligned
  93:Module/remote_control/remote_control.c ****     rc_ctrl->rc.ch[2] = ((sbus_buf[2] >> 6) | (sbus_buf[3] << 2) |          //!< Channel 2
 289              		.loc 1 93 5 is_stmt 1 view .LVU58
 290              		.loc 1 93 35 is_stmt 0 view .LVU59
 291 0030 8078     		ldrb	r0, [r0, #2]	@ zero_extendqisi2
 292              	.LVL6:
 293              		.loc 1 93 56 view .LVU60
 294 0032 DA78     		ldrb	r2, [r3, #3]	@ zero_extendqisi2
 295              		.loc 1 93 45 view .LVU61
 296 0034 9200     		lsls	r2, r2, #2
 297 0036 42EA9012 		orr	r2, r2, r0, lsr #6
  94:Module/remote_control/remote_control.c ****                          (sbus_buf[4] << 10)) &0x07ff;
 298              		.loc 1 94 35 view .LVU62
 299 003a 1879     		ldrb	r0, [r3, #4]	@ zero_extendqisi2
  93:Module/remote_control/remote_control.c ****     rc_ctrl->rc.ch[2] = ((sbus_buf[2] >> 6) | (sbus_buf[3] << 2) |          //!< Channel 2
 300              		.loc 1 93 66 view .LVU63
 301 003c 42EA8022 		orr	r2, r2, r0, lsl #10
 302              		.loc 1 94 47 view .LVU64
 303 0040 C2F30A02 		ubfx	r2, r2, #0, #11
  93:Module/remote_control/remote_control.c ****     rc_ctrl->rc.ch[2] = ((sbus_buf[2] >> 6) | (sbus_buf[3] << 2) |          //!< Channel 2
 304              		.loc 1 93 23 view .LVU65
 305 0044 8A80     		strh	r2, [r1, #4]	@ unaligned
  95:Module/remote_control/remote_control.c ****     rc_ctrl->rc.ch[3] = ((sbus_buf[4] >> 1) | (sbus_buf[5] << 7)) & 0x07ff; //!< Channel 3
 306              		.loc 1 95 5 is_stmt 1 view .LVU66
 307              		.loc 1 95 35 is_stmt 0 view .LVU67
 308 0046 1D79     		ldrb	r5, [r3, #4]	@ zero_extendqisi2
 309              		.loc 1 95 56 view .LVU68
ARM GAS  C:\Users\30514\AppData\Local\Temp\ccxdXenu.s 			page 25


 310 0048 5879     		ldrb	r0, [r3, #5]	@ zero_extendqisi2
 311              		.loc 1 95 45 view .LVU69
 312 004a C001     		lsls	r0, r0, #7
 313 004c 40EA5500 		orr	r0, r0, r5, lsr #1
 314              		.loc 1 95 67 view .LVU70
 315 0050 C0F30A00 		ubfx	r0, r0, #0, #11
 316              		.loc 1 95 23 view .LVU71
 317 0054 C880     		strh	r0, [r1, #6]	@ unaligned
  96:Module/remote_control/remote_control.c ****     rc_ctrl->rc.s[0] = ((sbus_buf[5] >> 4) & 0x0003);                  //!< Switch left å·¦å¼€å…³
 318              		.loc 1 96 5 is_stmt 1 view .LVU72
 319              		.loc 1 96 34 is_stmt 0 view .LVU73
 320 0056 93F805C0 		ldrb	ip, [r3, #5]	@ zero_extendqisi2
 321              		.loc 1 96 44 view .LVU74
 322 005a CCF3011C 		ubfx	ip, ip, #4, #2
 323              		.loc 1 96 22 view .LVU75
 324 005e 81F80AC0 		strb	ip, [r1, #10]
  97:Module/remote_control/remote_control.c ****     rc_ctrl->rc.s[1] = ((sbus_buf[5] >> 4) & 0x000C) >> 2;                       //!< Switch right 
 325              		.loc 1 97 5 is_stmt 1 view .LVU76
 326              		.loc 1 97 34 is_stmt 0 view .LVU77
 327 0062 93F805C0 		ldrb	ip, [r3, #5]	@ zero_extendqisi2
 328              		.loc 1 97 54 view .LVU78
 329 0066 4FEA9C1C 		lsr	ip, ip, #6
 330              		.loc 1 97 22 view .LVU79
 331 006a 81F80BC0 		strb	ip, [r1, #11]
  98:Module/remote_control/remote_control.c ****     rc_ctrl->mouse.x = sbus_buf[6] | (sbus_buf[7] << 8);                    //!< Mouse X axis é¼ æ 
 332              		.loc 1 98 5 is_stmt 1 view .LVU80
 333              		.loc 1 98 32 is_stmt 0 view .LVU81
 334 006e 93F806C0 		ldrb	ip, [r3, #6]	@ zero_extendqisi2
 335              		.loc 1 98 47 view .LVU82
 336 0072 DD79     		ldrb	r5, [r3, #7]	@ zero_extendqisi2
 337              		.loc 1 98 36 view .LVU83
 338 0074 4CEA052C 		orr	ip, ip, r5, lsl #8
 339              		.loc 1 98 22 view .LVU84
 340 0078 A1F80CC0 		strh	ip, [r1, #12]	@ unaligned
  99:Module/remote_control/remote_control.c ****     rc_ctrl->mouse.y = sbus_buf[8] | (sbus_buf[9] << 8);                    //!< Mouse Y axis é¼ æ 
 341              		.loc 1 99 5 is_stmt 1 view .LVU85
 342              		.loc 1 99 32 is_stmt 0 view .LVU86
 343 007c 93F808C0 		ldrb	ip, [r3, #8]	@ zero_extendqisi2
 344              		.loc 1 99 47 view .LVU87
 345 0080 5D7A     		ldrb	r5, [r3, #9]	@ zero_extendqisi2
 346              		.loc 1 99 36 view .LVU88
 347 0082 4CEA052C 		orr	ip, ip, r5, lsl #8
 348              		.loc 1 99 22 view .LVU89
 349 0086 A1F80EC0 		strh	ip, [r1, #14]	@ unaligned
 100:Module/remote_control/remote_control.c ****     rc_ctrl->mouse.z = sbus_buf[10] | (sbus_buf[11] << 8);                  //!< Mouse Z axis é¼ æ 
 350              		.loc 1 100 5 is_stmt 1 view .LVU90
 351              		.loc 1 100 32 is_stmt 0 view .LVU91
 352 008a 93F80AC0 		ldrb	ip, [r3, #10]	@ zero_extendqisi2
 353              		.loc 1 100 48 view .LVU92
 354 008e DD7A     		ldrb	r5, [r3, #11]	@ zero_extendqisi2
 355              		.loc 1 100 37 view .LVU93
 356 0090 4CEA052C 		orr	ip, ip, r5, lsl #8
 357              		.loc 1 100 22 view .LVU94
 358 0094 A1F810C0 		strh	ip, [r1, #16]	@ unaligned
 101:Module/remote_control/remote_control.c ****     rc_ctrl->mouse.press_l = sbus_buf[12];                                  //!< Mouse Left Is Pres
 359              		.loc 1 101 5 is_stmt 1 view .LVU95
 360              		.loc 1 101 38 is_stmt 0 view .LVU96
ARM GAS  C:\Users\30514\AppData\Local\Temp\ccxdXenu.s 			page 26


 361 0098 1D7B     		ldrb	r5, [r3, #12]	@ zero_extendqisi2
 362              		.loc 1 101 28 view .LVU97
 363 009a 8D74     		strb	r5, [r1, #18]
 102:Module/remote_control/remote_control.c ****     rc_ctrl->mouse.press_r = sbus_buf[13];                                  //!< Mouse Right Is Pre
 364              		.loc 1 102 5 is_stmt 1 view .LVU98
 365              		.loc 1 102 38 is_stmt 0 view .LVU99
 366 009c 5D7B     		ldrb	r5, [r3, #13]	@ zero_extendqisi2
 367              		.loc 1 102 28 view .LVU100
 368 009e CD74     		strb	r5, [r1, #19]
 103:Module/remote_control/remote_control.c ****     rc_ctrl->key.v = sbus_buf[14] | (sbus_buf[15] << 8);                    //!< KeyBoard value
 369              		.loc 1 103 5 is_stmt 1 view .LVU101
 370              		.loc 1 103 30 is_stmt 0 view .LVU102
 371 00a0 93F80EC0 		ldrb	ip, [r3, #14]	@ zero_extendqisi2
 372              		.loc 1 103 46 view .LVU103
 373 00a4 DD7B     		ldrb	r5, [r3, #15]	@ zero_extendqisi2
 374              		.loc 1 103 35 view .LVU104
 375 00a6 4CEA052C 		orr	ip, ip, r5, lsl #8
 376              		.loc 1 103 20 view .LVU105
 377 00aa A1F814C0 		strh	ip, [r1, #20]	@ unaligned
 104:Module/remote_control/remote_control.c ****     rc_ctrl->rc.ch[4] = sbus_buf[16] | (sbus_buf[17] << 8);                 //NULL
 378              		.loc 1 104 5 is_stmt 1 view .LVU106
 379              		.loc 1 104 33 is_stmt 0 view .LVU107
 380 00ae 93F810C0 		ldrb	ip, [r3, #16]	@ zero_extendqisi2
 381              		.loc 1 104 49 view .LVU108
 382 00b2 5B7C     		ldrb	r3, [r3, #17]	@ zero_extendqisi2
 383              	.LVL7:
 384              		.loc 1 104 38 view .LVU109
 385 00b4 4CEA0323 		orr	r3, ip, r3, lsl #8
 386              		.loc 1 104 23 view .LVU110
 387 00b8 0B81     		strh	r3, [r1, #8]	@ unaligned
 105:Module/remote_control/remote_control.c **** 
 106:Module/remote_control/remote_control.c ****     //æ‰€æœ‰é€šé“å‡åŽ»ä¸­ä½åç§»é‡
 107:Module/remote_control/remote_control.c ****     rc_ctrl->rc.ch[0] -= RC_CH_VALUE_OFFSET;
 388              		.loc 1 107 5 is_stmt 1 view .LVU111
 389              		.loc 1 107 23 is_stmt 0 view .LVU112
 390 00ba A4F58064 		sub	r4, r4, #1024
 391 00be 0C80     		strh	r4, [r1]	@ unaligned
 108:Module/remote_control/remote_control.c ****     rc_ctrl->rc.ch[1] -= RC_CH_VALUE_OFFSET;
 392              		.loc 1 108 5 is_stmt 1 view .LVU113
 393              		.loc 1 108 23 is_stmt 0 view .LVU114
 394 00c0 AEF5806E 		sub	lr, lr, #1024
 395 00c4 A1F802E0 		strh	lr, [r1, #2]	@ unaligned
 109:Module/remote_control/remote_control.c ****     rc_ctrl->rc.ch[2] -= RC_CH_VALUE_OFFSET;
 396              		.loc 1 109 5 is_stmt 1 view .LVU115
 397              		.loc 1 109 23 is_stmt 0 view .LVU116
 398 00c8 A2F58062 		sub	r2, r2, #1024
 399 00cc 8A80     		strh	r2, [r1, #4]	@ unaligned
 110:Module/remote_control/remote_control.c ****     rc_ctrl->rc.ch[3] -= RC_CH_VALUE_OFFSET;
 400              		.loc 1 110 5 is_stmt 1 view .LVU117
 401              		.loc 1 110 23 is_stmt 0 view .LVU118
 402 00ce A0F58060 		sub	r0, r0, #1024
 403 00d2 C880     		strh	r0, [r1, #6]	@ unaligned
 111:Module/remote_control/remote_control.c ****     rc_ctrl->rc.ch[4] -= RC_CH_VALUE_OFFSET;
 404              		.loc 1 111 5 is_stmt 1 view .LVU119
 405              		.loc 1 111 23 is_stmt 0 view .LVU120
 406 00d4 A3F58063 		sub	r3, r3, #1024
 407 00d8 0B81     		strh	r3, [r1, #8]	@ unaligned
ARM GAS  C:\Users\30514\AppData\Local\Temp\ccxdXenu.s 			page 27


 112:Module/remote_control/remote_control.c **** }
 408              		.loc 1 112 1 view .LVU121
 409 00da 30BD     		pop	{r4, r5, pc}
 410              	.LVL8:
 411              	.L18:
 412              	.LCFI7:
 413              		.cfi_def_cfa_offset 0
 414              		.cfi_restore 4
 415              		.cfi_restore 5
 416              		.cfi_restore 14
 417              		.loc 1 112 1 view .LVU122
 418 00dc 7047     		bx	lr
 419              		.cfi_endproc
 420              	.LFE137:
 422              		.section	.text.Sbus_Data_Count,"ax",%progbits
 423              		.align	1
 424              		.global	Sbus_Data_Count
 425              		.syntax unified
 426              		.thumb
 427              		.thumb_func
 429              	Sbus_Data_Count:
 430              	.LVL9:
 431              	.LFB138:
 113:Module/remote_control/remote_control.c **** //é€‚é…å¤©åœ°é£žé¥æŽ§å™¨
 114:Module/remote_control/remote_control.c **** void Sbus_Data_Count(rc_info_t *rc, uint8_t *sbusData)
 115:Module/remote_control/remote_control.c **** {
 432              		.loc 1 115 1 is_stmt 1 view -0
 433              		.cfi_startproc
 434              		@ args = 0, pretend = 0, frame = 0
 435              		@ frame_needed = 0, uses_anonymous_args = 0
 436              		@ link register save eliminated.
 116:Module/remote_control/remote_control.c ****     //å¸§å¤´å¸§å°¾æ ¡éªŒ
 117:Module/remote_control/remote_control.c ****     if((sbusData[0]) == 0x0F && (sbusData[24] == 0x00))
 437              		.loc 1 117 5 view .LVU124
 438              		.loc 1 117 17 is_stmt 0 view .LVU125
 439 0000 0B78     		ldrb	r3, [r1]	@ zero_extendqisi2
 440              		.loc 1 117 7 view .LVU126
 441 0002 0F2B     		cmp	r3, #15
 442 0004 00D0     		beq	.L47
 443              	.LVL10:
 444              	.L21:
 118:Module/remote_control/remote_control.c ****     {
 119:Module/remote_control/remote_control.c ****         //æ‘‡æ†é€šé“è§£æž
 120:Module/remote_control/remote_control.c ****         rc->ch1 = ((sbusData[1]|sbusData[2]<< 8) & 0x07FF) - 1024;
 121:Module/remote_control/remote_control.c ****         rc->ch2 = ((sbusData[2]>>3|sbusData[3]<<5) & 0x07FF) - 1024;
 122:Module/remote_control/remote_control.c ****         rc->ch3 = ((sbusData[3]>>6|sbusData[4]<<2|sbusData[5]<<10) & 0x07FF) - 1024;
 123:Module/remote_control/remote_control.c ****         rc->ch4 = ((sbusData[5]>>1|sbusData[6]<<7) & 0x07FF) - 1024;
 124:Module/remote_control/remote_control.c ****         //é™„åŠ é€šé“è§£æž(æ—‹é’®)
 125:Module/remote_control/remote_control.c ****         rc->Vra = ((sbusData[6]>>4|sbusData[7]<<4) & 0x07FF) - 1024;
 126:Module/remote_control/remote_control.c ****         rc->Vrb = ((sbusData[7]>>7|sbusData[8]<<1|sbusData[9]<<9) & 0x07FF) - 1024;
 127:Module/remote_control/remote_control.c ****         //æ‹¨æ†å¼€å…³è§£æž
 128:Module/remote_control/remote_control.c ****         rc->sw1 = ((sbusData[9]>>2|sbusData[10]<<6) & 0x07FF);
 129:Module/remote_control/remote_control.c ****         switch(rc->sw1)
 130:Module/remote_control/remote_control.c ****         {
 131:Module/remote_control/remote_control.c ****             case 240 : rc->sw1 = 1;break;     //ä¸Š
 132:Module/remote_control/remote_control.c ****             case 0   : rc->sw1 = 2;break;     //ä¸­
 133:Module/remote_control/remote_control.c ****             case 15  : rc->sw1 = 3;break;     //ä¸‹
ARM GAS  C:\Users\30514\AppData\Local\Temp\ccxdXenu.s 			page 28


 134:Module/remote_control/remote_control.c ****             default  : rc->sw1 = 1;           //ä¸Š(é»˜è®¤)
 135:Module/remote_control/remote_control.c ****         }
 136:Module/remote_control/remote_control.c ****         //å¦ä¸€ä¸ªæ‹¨æ†å¼€å…³
 137:Module/remote_control/remote_control.c ****         rc->sw2 = ((sbusData[10]>>5|sbusData[11]<<3) & 0x07FF); // & the other 8 + 2 channels if yo
 138:Module/remote_control/remote_control.c ****         switch(rc->sw2)
 139:Module/remote_control/remote_control.c ****         {
 140:Module/remote_control/remote_control.c ****             case 240 : rc->sw2 = 1;break;
 141:Module/remote_control/remote_control.c ****             case 0   : rc->sw2 = 2;break;
 142:Module/remote_control/remote_control.c ****             case 15  : rc->sw2 = 3;break;
 143:Module/remote_control/remote_control.c ****             default  : rc->sw2 = 1;
 144:Module/remote_control/remote_control.c ****         }
 145:Module/remote_control/remote_control.c ****         //åˆä¸€ä¸ªæ‹¨æ†å¼€å…³
 146:Module/remote_control/remote_control.c ****         rc->sw3 = ((sbusData[12]|sbusData[13]<< 8) & 0x07FF);
 147:Module/remote_control/remote_control.c ****         switch(rc->sw3)
 148:Module/remote_control/remote_control.c ****         {
 149:Module/remote_control/remote_control.c ****             case 240 : rc->sw3 = 1;break;
 150:Module/remote_control/remote_control.c ****             case 0   : rc->sw3 = 2;break;
 151:Module/remote_control/remote_control.c ****             case 15  : rc->sw3 = 3;break;
 152:Module/remote_control/remote_control.c ****             default  : rc->sw3 = 1;
 153:Module/remote_control/remote_control.c ****         }
 154:Module/remote_control/remote_control.c ****         //åˆä¸€ä¸ªæ‹¨æ†å¼€å…³
 155:Module/remote_control/remote_control.c ****         rc->sw4 = ((sbusData[13]>>3|sbusData[14]<<5) & 0x07FF);
 156:Module/remote_control/remote_control.c ****         switch(rc->sw4)
 157:Module/remote_control/remote_control.c ****         {
 158:Module/remote_control/remote_control.c ****             case 240 : rc->sw4 = 1;break;
 159:Module/remote_control/remote_control.c ****             case 0   : rc->sw4 = 2;break;
 160:Module/remote_control/remote_control.c ****             case 15  : rc->sw4 = 3;break;
 161:Module/remote_control/remote_control.c ****             default  : rc->sw4 = 1;
 162:Module/remote_control/remote_control.c ****         }
 163:Module/remote_control/remote_control.c ****         //#ifdef ALL_CHANNELS
 164:Module/remote_control/remote_control.c ****         channels[10] = ((sbusData[14]>>6|sbusData[15]<<2|sbusData[16]<<10) & 0x07FF);
 165:Module/remote_control/remote_control.c ****         channels[11] = ((sbusData[16]>>1|sbusData[17]<<7) & 0x07FF);
 166:Module/remote_control/remote_control.c ****         channels[12] = ((sbusData[17]>>4|sbusData[18]<<4) & 0x07FF);
 167:Module/remote_control/remote_control.c ****         channels[13] = ((sbusData[18]>>7|sbusData[19]<<1|sbusData[20]<<9) & 0x07FF);
 168:Module/remote_control/remote_control.c ****         channels[14] = ((sbusData[20]>>2|sbusData[21]<<6) & 0x07FF);
 169:Module/remote_control/remote_control.c ****         channels[15] = ((sbusData[21]>>5|sbusData[22]<<3) & 0x07FF);
 170:Module/remote_control/remote_control.c ****     }
 171:Module/remote_control/remote_control.c **** 
 172:Module/remote_control/remote_control.c **** }
 445              		.loc 1 172 1 view .LVU127
 446 0006 7047     		bx	lr
 447              	.LVL11:
 448              	.L47:
 117:Module/remote_control/remote_control.c ****     {
 449              		.loc 1 117 42 discriminator 1 view .LVU128
 450 0008 0B7E     		ldrb	r3, [r1, #24]	@ zero_extendqisi2
 117:Module/remote_control/remote_control.c ****     {
 451              		.loc 1 117 30 discriminator 1 view .LVU129
 452 000a 002B     		cmp	r3, #0
 453 000c FBD1     		bne	.L21
 120:Module/remote_control/remote_control.c ****         rc->ch2 = ((sbusData[2]>>3|sbusData[3]<<5) & 0x07FF) - 1024;
 454              		.loc 1 120 9 is_stmt 1 view .LVU130
 120:Module/remote_control/remote_control.c ****         rc->ch2 = ((sbusData[2]>>3|sbusData[3]<<5) & 0x07FF) - 1024;
 455              		.loc 1 120 29 is_stmt 0 view .LVU131
 456 000e 4B78     		ldrb	r3, [r1, #1]	@ zero_extendqisi2
 120:Module/remote_control/remote_control.c ****         rc->ch2 = ((sbusData[2]>>3|sbusData[3]<<5) & 0x07FF) - 1024;
 457              		.loc 1 120 41 view .LVU132
ARM GAS  C:\Users\30514\AppData\Local\Temp\ccxdXenu.s 			page 29


 458 0010 8A78     		ldrb	r2, [r1, #2]	@ zero_extendqisi2
 120:Module/remote_control/remote_control.c ****         rc->ch2 = ((sbusData[2]>>3|sbusData[3]<<5) & 0x07FF) - 1024;
 459              		.loc 1 120 32 view .LVU133
 460 0012 43EA0223 		orr	r3, r3, r2, lsl #8
 120:Module/remote_control/remote_control.c ****         rc->ch2 = ((sbusData[2]>>3|sbusData[3]<<5) & 0x07FF) - 1024;
 461              		.loc 1 120 50 view .LVU134
 462 0016 C3F30A03 		ubfx	r3, r3, #0, #11
 120:Module/remote_control/remote_control.c ****         rc->ch2 = ((sbusData[2]>>3|sbusData[3]<<5) & 0x07FF) - 1024;
 463              		.loc 1 120 60 view .LVU135
 464 001a A3F58063 		sub	r3, r3, #1024
 120:Module/remote_control/remote_control.c ****         rc->ch2 = ((sbusData[2]>>3|sbusData[3]<<5) & 0x07FF) - 1024;
 465              		.loc 1 120 17 view .LVU136
 466 001e 0380     		strh	r3, [r0]	@ unaligned
 121:Module/remote_control/remote_control.c ****         rc->ch3 = ((sbusData[3]>>6|sbusData[4]<<2|sbusData[5]<<10) & 0x07FF) - 1024;
 467              		.loc 1 121 9 is_stmt 1 view .LVU137
 121:Module/remote_control/remote_control.c ****         rc->ch3 = ((sbusData[3]>>6|sbusData[4]<<2|sbusData[5]<<10) & 0x07FF) - 1024;
 468              		.loc 1 121 29 is_stmt 0 view .LVU138
 469 0020 8A78     		ldrb	r2, [r1, #2]	@ zero_extendqisi2
 121:Module/remote_control/remote_control.c ****         rc->ch3 = ((sbusData[3]>>6|sbusData[4]<<2|sbusData[5]<<10) & 0x07FF) - 1024;
 470              		.loc 1 121 44 view .LVU139
 471 0022 CB78     		ldrb	r3, [r1, #3]	@ zero_extendqisi2
 121:Module/remote_control/remote_control.c ****         rc->ch3 = ((sbusData[3]>>6|sbusData[4]<<2|sbusData[5]<<10) & 0x07FF) - 1024;
 472              		.loc 1 121 35 view .LVU140
 473 0024 5B01     		lsls	r3, r3, #5
 474 0026 43EAD203 		orr	r3, r3, r2, lsr #3
 121:Module/remote_control/remote_control.c ****         rc->ch3 = ((sbusData[3]>>6|sbusData[4]<<2|sbusData[5]<<10) & 0x07FF) - 1024;
 475              		.loc 1 121 52 view .LVU141
 476 002a C3F30A03 		ubfx	r3, r3, #0, #11
 121:Module/remote_control/remote_control.c ****         rc->ch3 = ((sbusData[3]>>6|sbusData[4]<<2|sbusData[5]<<10) & 0x07FF) - 1024;
 477              		.loc 1 121 62 view .LVU142
 478 002e A3F58063 		sub	r3, r3, #1024
 121:Module/remote_control/remote_control.c ****         rc->ch3 = ((sbusData[3]>>6|sbusData[4]<<2|sbusData[5]<<10) & 0x07FF) - 1024;
 479              		.loc 1 121 17 view .LVU143
 480 0032 4380     		strh	r3, [r0, #2]	@ unaligned
 122:Module/remote_control/remote_control.c ****         rc->ch4 = ((sbusData[5]>>1|sbusData[6]<<7) & 0x07FF) - 1024;
 481              		.loc 1 122 9 is_stmt 1 view .LVU144
 122:Module/remote_control/remote_control.c ****         rc->ch4 = ((sbusData[5]>>1|sbusData[6]<<7) & 0x07FF) - 1024;
 482              		.loc 1 122 29 is_stmt 0 view .LVU145
 483 0034 CA78     		ldrb	r2, [r1, #3]	@ zero_extendqisi2
 122:Module/remote_control/remote_control.c ****         rc->ch4 = ((sbusData[5]>>1|sbusData[6]<<7) & 0x07FF) - 1024;
 484              		.loc 1 122 44 view .LVU146
 485 0036 0B79     		ldrb	r3, [r1, #4]	@ zero_extendqisi2
 122:Module/remote_control/remote_control.c ****         rc->ch4 = ((sbusData[5]>>1|sbusData[6]<<7) & 0x07FF) - 1024;
 486              		.loc 1 122 35 view .LVU147
 487 0038 9B00     		lsls	r3, r3, #2
 488 003a 43EA9213 		orr	r3, r3, r2, lsr #6
 122:Module/remote_control/remote_control.c ****         rc->ch4 = ((sbusData[5]>>1|sbusData[6]<<7) & 0x07FF) - 1024;
 489              		.loc 1 122 59 view .LVU148
 490 003e 4A79     		ldrb	r2, [r1, #5]	@ zero_extendqisi2
 122:Module/remote_control/remote_control.c ****         rc->ch4 = ((sbusData[5]>>1|sbusData[6]<<7) & 0x07FF) - 1024;
 491              		.loc 1 122 50 view .LVU149
 492 0040 43EA8223 		orr	r3, r3, r2, lsl #10
 122:Module/remote_control/remote_control.c ****         rc->ch4 = ((sbusData[5]>>1|sbusData[6]<<7) & 0x07FF) - 1024;
 493              		.loc 1 122 68 view .LVU150
 494 0044 C3F30A03 		ubfx	r3, r3, #0, #11
 122:Module/remote_control/remote_control.c ****         rc->ch4 = ((sbusData[5]>>1|sbusData[6]<<7) & 0x07FF) - 1024;
 495              		.loc 1 122 78 view .LVU151
ARM GAS  C:\Users\30514\AppData\Local\Temp\ccxdXenu.s 			page 30


 496 0048 A3F58063 		sub	r3, r3, #1024
 122:Module/remote_control/remote_control.c ****         rc->ch4 = ((sbusData[5]>>1|sbusData[6]<<7) & 0x07FF) - 1024;
 497              		.loc 1 122 17 view .LVU152
 498 004c 8380     		strh	r3, [r0, #4]	@ unaligned
 123:Module/remote_control/remote_control.c ****         //é™„åŠ é€šé“è§£æž(æ—‹é’®)
 499              		.loc 1 123 9 is_stmt 1 view .LVU153
 123:Module/remote_control/remote_control.c ****         //é™„åŠ é€šé“è§£æž(æ—‹é’®)
 500              		.loc 1 123 29 is_stmt 0 view .LVU154
 501 004e 4A79     		ldrb	r2, [r1, #5]	@ zero_extendqisi2
 123:Module/remote_control/remote_control.c ****         //é™„åŠ é€šé“è§£æž(æ—‹é’®)
 502              		.loc 1 123 44 view .LVU155
 503 0050 8B79     		ldrb	r3, [r1, #6]	@ zero_extendqisi2
 123:Module/remote_control/remote_control.c ****         //é™„åŠ é€šé“è§£æž(æ—‹é’®)
 504              		.loc 1 123 35 view .LVU156
 505 0052 DB01     		lsls	r3, r3, #7
 506 0054 43EA5203 		orr	r3, r3, r2, lsr #1
 123:Module/remote_control/remote_control.c ****         //é™„åŠ é€šé“è§£æž(æ—‹é’®)
 507              		.loc 1 123 52 view .LVU157
 508 0058 C3F30A03 		ubfx	r3, r3, #0, #11
 123:Module/remote_control/remote_control.c ****         //é™„åŠ é€šé“è§£æž(æ—‹é’®)
 509              		.loc 1 123 62 view .LVU158
 510 005c A3F58063 		sub	r3, r3, #1024
 123:Module/remote_control/remote_control.c ****         //é™„åŠ é€šé“è§£æž(æ—‹é’®)
 511              		.loc 1 123 17 view .LVU159
 512 0060 C380     		strh	r3, [r0, #6]	@ unaligned
 125:Module/remote_control/remote_control.c ****         rc->Vrb = ((sbusData[7]>>7|sbusData[8]<<1|sbusData[9]<<9) & 0x07FF) - 1024;
 513              		.loc 1 125 9 is_stmt 1 view .LVU160
 125:Module/remote_control/remote_control.c ****         rc->Vrb = ((sbusData[7]>>7|sbusData[8]<<1|sbusData[9]<<9) & 0x07FF) - 1024;
 514              		.loc 1 125 29 is_stmt 0 view .LVU161
 515 0062 8A79     		ldrb	r2, [r1, #6]	@ zero_extendqisi2
 125:Module/remote_control/remote_control.c ****         rc->Vrb = ((sbusData[7]>>7|sbusData[8]<<1|sbusData[9]<<9) & 0x07FF) - 1024;
 516              		.loc 1 125 44 view .LVU162
 517 0064 CB79     		ldrb	r3, [r1, #7]	@ zero_extendqisi2
 125:Module/remote_control/remote_control.c ****         rc->Vrb = ((sbusData[7]>>7|sbusData[8]<<1|sbusData[9]<<9) & 0x07FF) - 1024;
 518              		.loc 1 125 35 view .LVU163
 519 0066 1B01     		lsls	r3, r3, #4
 520 0068 43EA1213 		orr	r3, r3, r2, lsr #4
 125:Module/remote_control/remote_control.c ****         rc->Vrb = ((sbusData[7]>>7|sbusData[8]<<1|sbusData[9]<<9) & 0x07FF) - 1024;
 521              		.loc 1 125 52 view .LVU164
 522 006c C3F30A03 		ubfx	r3, r3, #0, #11
 125:Module/remote_control/remote_control.c ****         rc->Vrb = ((sbusData[7]>>7|sbusData[8]<<1|sbusData[9]<<9) & 0x07FF) - 1024;
 523              		.loc 1 125 62 view .LVU165
 524 0070 A3F58063 		sub	r3, r3, #1024
 125:Module/remote_control/remote_control.c ****         rc->Vrb = ((sbusData[7]>>7|sbusData[8]<<1|sbusData[9]<<9) & 0x07FF) - 1024;
 525              		.loc 1 125 17 view .LVU166
 526 0074 0381     		strh	r3, [r0, #8]	@ unaligned
 126:Module/remote_control/remote_control.c ****         //æ‹¨æ†å¼€å…³è§£æž
 527              		.loc 1 126 9 is_stmt 1 view .LVU167
 126:Module/remote_control/remote_control.c ****         //æ‹¨æ†å¼€å…³è§£æž
 528              		.loc 1 126 29 is_stmt 0 view .LVU168
 529 0076 CA79     		ldrb	r2, [r1, #7]	@ zero_extendqisi2
 126:Module/remote_control/remote_control.c ****         //æ‹¨æ†å¼€å…³è§£æž
 530              		.loc 1 126 44 view .LVU169
 531 0078 0B7A     		ldrb	r3, [r1, #8]	@ zero_extendqisi2
 126:Module/remote_control/remote_control.c ****         //æ‹¨æ†å¼€å…³è§£æž
 532              		.loc 1 126 35 view .LVU170
 533 007a 5B00     		lsls	r3, r3, #1
ARM GAS  C:\Users\30514\AppData\Local\Temp\ccxdXenu.s 			page 31


 534 007c 43EAD213 		orr	r3, r3, r2, lsr #7
 126:Module/remote_control/remote_control.c ****         //æ‹¨æ†å¼€å…³è§£æž
 535              		.loc 1 126 59 view .LVU171
 536 0080 4A7A     		ldrb	r2, [r1, #9]	@ zero_extendqisi2
 126:Module/remote_control/remote_control.c ****         //æ‹¨æ†å¼€å…³è§£æž
 537              		.loc 1 126 50 view .LVU172
 538 0082 43EA4223 		orr	r3, r3, r2, lsl #9
 126:Module/remote_control/remote_control.c ****         //æ‹¨æ†å¼€å…³è§£æž
 539              		.loc 1 126 67 view .LVU173
 540 0086 C3F30A03 		ubfx	r3, r3, #0, #11
 126:Module/remote_control/remote_control.c ****         //æ‹¨æ†å¼€å…³è§£æž
 541              		.loc 1 126 77 view .LVU174
 542 008a A3F58063 		sub	r3, r3, #1024
 126:Module/remote_control/remote_control.c ****         //æ‹¨æ†å¼€å…³è§£æž
 543              		.loc 1 126 17 view .LVU175
 544 008e 4381     		strh	r3, [r0, #10]	@ unaligned
 128:Module/remote_control/remote_control.c ****         switch(rc->sw1)
 545              		.loc 1 128 9 is_stmt 1 view .LVU176
 128:Module/remote_control/remote_control.c ****         switch(rc->sw1)
 546              		.loc 1 128 29 is_stmt 0 view .LVU177
 547 0090 4A7A     		ldrb	r2, [r1, #9]	@ zero_extendqisi2
 128:Module/remote_control/remote_control.c ****         switch(rc->sw1)
 548              		.loc 1 128 44 view .LVU178
 549 0092 8B7A     		ldrb	r3, [r1, #10]	@ zero_extendqisi2
 128:Module/remote_control/remote_control.c ****         switch(rc->sw1)
 550              		.loc 1 128 35 view .LVU179
 551 0094 9B01     		lsls	r3, r3, #6
 552 0096 43EA9203 		orr	r3, r3, r2, lsr #2
 553 009a DBB2     		uxtb	r3, r3
 128:Module/remote_control/remote_control.c ****         switch(rc->sw1)
 554              		.loc 1 128 17 view .LVU180
 555 009c 0373     		strb	r3, [r0, #12]
 129:Module/remote_control/remote_control.c ****         {
 556              		.loc 1 129 9 is_stmt 1 view .LVU181
 557 009e 0F2B     		cmp	r3, #15
 558 00a0 19D0     		beq	.L23
 559 00a2 F02B     		cmp	r3, #240
 560 00a4 03D0     		beq	.L24
 561 00a6 9BB1     		cbz	r3, .L25
 134:Module/remote_control/remote_control.c ****         }
 562              		.loc 1 134 24 view .LVU182
 134:Module/remote_control/remote_control.c ****         }
 563              		.loc 1 134 32 is_stmt 0 view .LVU183
 564 00a8 0123     		movs	r3, #1
 565 00aa 0373     		strb	r3, [r0, #12]
 566 00ac 01E0     		b	.L27
 567              	.L24:
 131:Module/remote_control/remote_control.c ****             case 0   : rc->sw1 = 2;break;     //ä¸­
 568              		.loc 1 131 24 is_stmt 1 view .LVU184
 131:Module/remote_control/remote_control.c ****             case 0   : rc->sw1 = 2;break;     //ä¸­
 569              		.loc 1 131 32 is_stmt 0 view .LVU185
 570 00ae 0123     		movs	r3, #1
 571 00b0 0373     		strb	r3, [r0, #12]
 131:Module/remote_control/remote_control.c ****             case 0   : rc->sw1 = 2;break;     //ä¸­
 572              		.loc 1 131 36 is_stmt 1 view .LVU186
 573              	.L27:
 137:Module/remote_control/remote_control.c ****         switch(rc->sw2)
ARM GAS  C:\Users\30514\AppData\Local\Temp\ccxdXenu.s 			page 32


 574              		.loc 1 137 9 view .LVU187
 137:Module/remote_control/remote_control.c ****         switch(rc->sw2)
 575              		.loc 1 137 29 is_stmt 0 view .LVU188
 576 00b2 8A7A     		ldrb	r2, [r1, #10]	@ zero_extendqisi2
 137:Module/remote_control/remote_control.c ****         switch(rc->sw2)
 577              		.loc 1 137 45 view .LVU189
 578 00b4 CB7A     		ldrb	r3, [r1, #11]	@ zero_extendqisi2
 137:Module/remote_control/remote_control.c ****         switch(rc->sw2)
 579              		.loc 1 137 36 view .LVU190
 580 00b6 DB00     		lsls	r3, r3, #3
 581 00b8 43EA5213 		orr	r3, r3, r2, lsr #5
 582 00bc DBB2     		uxtb	r3, r3
 137:Module/remote_control/remote_control.c ****         switch(rc->sw2)
 583              		.loc 1 137 17 view .LVU191
 584 00be 4373     		strb	r3, [r0, #13]
 138:Module/remote_control/remote_control.c ****         {
 585              		.loc 1 138 9 is_stmt 1 view .LVU192
 586 00c0 0F2B     		cmp	r3, #15
 587 00c2 1AD0     		beq	.L28
 588 00c4 F02B     		cmp	r3, #240
 589 00c6 09D0     		beq	.L29
 590 00c8 A3B1     		cbz	r3, .L30
 143:Module/remote_control/remote_control.c ****         }
 591              		.loc 1 143 24 view .LVU193
 143:Module/remote_control/remote_control.c ****         }
 592              		.loc 1 143 32 is_stmt 0 view .LVU194
 593 00ca 0123     		movs	r3, #1
 594 00cc 4373     		strb	r3, [r0, #13]
 595 00ce 07E0     		b	.L32
 596              	.L25:
 132:Module/remote_control/remote_control.c ****             case 15  : rc->sw1 = 3;break;     //ä¸‹
 597              		.loc 1 132 24 is_stmt 1 view .LVU195
 132:Module/remote_control/remote_control.c ****             case 15  : rc->sw1 = 3;break;     //ä¸‹
 598              		.loc 1 132 32 is_stmt 0 view .LVU196
 599 00d0 0223     		movs	r3, #2
 600 00d2 0373     		strb	r3, [r0, #12]
 132:Module/remote_control/remote_control.c ****             case 15  : rc->sw1 = 3;break;     //ä¸‹
 601              		.loc 1 132 36 is_stmt 1 view .LVU197
 602 00d4 EDE7     		b	.L27
 603              	.L23:
 133:Module/remote_control/remote_control.c ****             default  : rc->sw1 = 1;           //ä¸Š(é»˜è®¤)
 604              		.loc 1 133 24 view .LVU198
 133:Module/remote_control/remote_control.c ****             default  : rc->sw1 = 1;           //ä¸Š(é»˜è®¤)
 605              		.loc 1 133 32 is_stmt 0 view .LVU199
 606 00d6 0323     		movs	r3, #3
 607 00d8 0373     		strb	r3, [r0, #12]
 133:Module/remote_control/remote_control.c ****             default  : rc->sw1 = 1;           //ä¸Š(é»˜è®¤)
 608              		.loc 1 133 36 is_stmt 1 view .LVU200
 609 00da EAE7     		b	.L27
 610              	.L29:
 140:Module/remote_control/remote_control.c ****             case 0   : rc->sw2 = 2;break;
 611              		.loc 1 140 24 view .LVU201
 140:Module/remote_control/remote_control.c ****             case 0   : rc->sw2 = 2;break;
 612              		.loc 1 140 32 is_stmt 0 view .LVU202
 613 00dc 0123     		movs	r3, #1
 614 00de 4373     		strb	r3, [r0, #13]
 140:Module/remote_control/remote_control.c ****             case 0   : rc->sw2 = 2;break;
ARM GAS  C:\Users\30514\AppData\Local\Temp\ccxdXenu.s 			page 33


 615              		.loc 1 140 36 is_stmt 1 view .LVU203
 616              	.L32:
 146:Module/remote_control/remote_control.c ****         switch(rc->sw3)
 617              		.loc 1 146 9 view .LVU204
 146:Module/remote_control/remote_control.c ****         switch(rc->sw3)
 618              		.loc 1 146 17 is_stmt 0 view .LVU205
 619 00e0 0B7B     		ldrb	r3, [r1, #12]	@ zero_extendqisi2
 620 00e2 8373     		strb	r3, [r0, #14]
 147:Module/remote_control/remote_control.c ****         {
 621              		.loc 1 147 9 is_stmt 1 view .LVU206
 622 00e4 0F2B     		cmp	r3, #15
 623 00e6 20D0     		beq	.L33
 624 00e8 F02B     		cmp	r3, #240
 625 00ea 09D0     		beq	.L34
 626 00ec D3B1     		cbz	r3, .L35
 152:Module/remote_control/remote_control.c ****         }
 627              		.loc 1 152 24 view .LVU207
 152:Module/remote_control/remote_control.c ****         }
 628              		.loc 1 152 32 is_stmt 0 view .LVU208
 629 00ee 0123     		movs	r3, #1
 630 00f0 8373     		strb	r3, [r0, #14]
 631 00f2 07E0     		b	.L37
 632              	.L30:
 141:Module/remote_control/remote_control.c ****             case 15  : rc->sw2 = 3;break;
 633              		.loc 1 141 24 is_stmt 1 view .LVU209
 141:Module/remote_control/remote_control.c ****             case 15  : rc->sw2 = 3;break;
 634              		.loc 1 141 32 is_stmt 0 view .LVU210
 635 00f4 0223     		movs	r3, #2
 636 00f6 4373     		strb	r3, [r0, #13]
 141:Module/remote_control/remote_control.c ****             case 15  : rc->sw2 = 3;break;
 637              		.loc 1 141 36 is_stmt 1 view .LVU211
 638 00f8 F2E7     		b	.L32
 639              	.L28:
 142:Module/remote_control/remote_control.c ****             default  : rc->sw2 = 1;
 640              		.loc 1 142 24 view .LVU212
 142:Module/remote_control/remote_control.c ****             default  : rc->sw2 = 1;
 641              		.loc 1 142 32 is_stmt 0 view .LVU213
 642 00fa 0323     		movs	r3, #3
 643 00fc 4373     		strb	r3, [r0, #13]
 142:Module/remote_control/remote_control.c ****             default  : rc->sw2 = 1;
 644              		.loc 1 142 36 is_stmt 1 view .LVU214
 645 00fe EFE7     		b	.L32
 646              	.L34:
 149:Module/remote_control/remote_control.c ****             case 0   : rc->sw3 = 2;break;
 647              		.loc 1 149 24 view .LVU215
 149:Module/remote_control/remote_control.c ****             case 0   : rc->sw3 = 2;break;
 648              		.loc 1 149 32 is_stmt 0 view .LVU216
 649 0100 0123     		movs	r3, #1
 650 0102 8373     		strb	r3, [r0, #14]
 149:Module/remote_control/remote_control.c ****             case 0   : rc->sw3 = 2;break;
 651              		.loc 1 149 36 is_stmt 1 view .LVU217
 652              	.L37:
 155:Module/remote_control/remote_control.c ****         switch(rc->sw4)
 653              		.loc 1 155 9 view .LVU218
 155:Module/remote_control/remote_control.c ****         switch(rc->sw4)
 654              		.loc 1 155 29 is_stmt 0 view .LVU219
 655 0104 4A7B     		ldrb	r2, [r1, #13]	@ zero_extendqisi2
ARM GAS  C:\Users\30514\AppData\Local\Temp\ccxdXenu.s 			page 34


 155:Module/remote_control/remote_control.c ****         switch(rc->sw4)
 656              		.loc 1 155 45 view .LVU220
 657 0106 8B7B     		ldrb	r3, [r1, #14]	@ zero_extendqisi2
 155:Module/remote_control/remote_control.c ****         switch(rc->sw4)
 658              		.loc 1 155 36 view .LVU221
 659 0108 5B01     		lsls	r3, r3, #5
 660 010a 43EAD203 		orr	r3, r3, r2, lsr #3
 661 010e DBB2     		uxtb	r3, r3
 155:Module/remote_control/remote_control.c ****         switch(rc->sw4)
 662              		.loc 1 155 17 view .LVU222
 663 0110 C373     		strb	r3, [r0, #15]
 156:Module/remote_control/remote_control.c ****         {
 664              		.loc 1 156 9 is_stmt 1 view .LVU223
 665 0112 0F2B     		cmp	r3, #15
 666 0114 47D0     		beq	.L38
 667 0116 F02B     		cmp	r3, #240
 668 0118 0AD0     		beq	.L39
 669 011a 002B     		cmp	r3, #0
 670 011c 40D0     		beq	.L40
 161:Module/remote_control/remote_control.c ****         }
 671              		.loc 1 161 24 view .LVU224
 161:Module/remote_control/remote_control.c ****         }
 672              		.loc 1 161 32 is_stmt 0 view .LVU225
 673 011e 0123     		movs	r3, #1
 674 0120 C373     		strb	r3, [r0, #15]
 675 0122 07E0     		b	.L42
 676              	.L35:
 150:Module/remote_control/remote_control.c ****             case 15  : rc->sw3 = 3;break;
 677              		.loc 1 150 24 is_stmt 1 view .LVU226
 150:Module/remote_control/remote_control.c ****             case 15  : rc->sw3 = 3;break;
 678              		.loc 1 150 32 is_stmt 0 view .LVU227
 679 0124 0223     		movs	r3, #2
 680 0126 8373     		strb	r3, [r0, #14]
 150:Module/remote_control/remote_control.c ****             case 15  : rc->sw3 = 3;break;
 681              		.loc 1 150 36 is_stmt 1 view .LVU228
 682 0128 ECE7     		b	.L37
 683              	.L33:
 151:Module/remote_control/remote_control.c ****             default  : rc->sw3 = 1;
 684              		.loc 1 151 24 view .LVU229
 151:Module/remote_control/remote_control.c ****             default  : rc->sw3 = 1;
 685              		.loc 1 151 32 is_stmt 0 view .LVU230
 686 012a 0323     		movs	r3, #3
 687 012c 8373     		strb	r3, [r0, #14]
 151:Module/remote_control/remote_control.c ****             default  : rc->sw3 = 1;
 688              		.loc 1 151 36 is_stmt 1 view .LVU231
 689 012e E9E7     		b	.L37
 690              	.L39:
 158:Module/remote_control/remote_control.c ****             case 0   : rc->sw4 = 2;break;
 691              		.loc 1 158 24 view .LVU232
 158:Module/remote_control/remote_control.c ****             case 0   : rc->sw4 = 2;break;
 692              		.loc 1 158 32 is_stmt 0 view .LVU233
 693 0130 0123     		movs	r3, #1
 694 0132 C373     		strb	r3, [r0, #15]
 158:Module/remote_control/remote_control.c ****             case 0   : rc->sw4 = 2;break;
 695              		.loc 1 158 36 is_stmt 1 view .LVU234
 696              	.L42:
 164:Module/remote_control/remote_control.c ****         channels[11] = ((sbusData[16]>>1|sbusData[17]<<7) & 0x07FF);
ARM GAS  C:\Users\30514\AppData\Local\Temp\ccxdXenu.s 			page 35


 697              		.loc 1 164 9 view .LVU235
 164:Module/remote_control/remote_control.c ****         channels[11] = ((sbusData[16]>>1|sbusData[17]<<7) & 0x07FF);
 698              		.loc 1 164 34 is_stmt 0 view .LVU236
 699 0134 8A7B     		ldrb	r2, [r1, #14]	@ zero_extendqisi2
 164:Module/remote_control/remote_control.c ****         channels[11] = ((sbusData[16]>>1|sbusData[17]<<7) & 0x07FF);
 700              		.loc 1 164 50 view .LVU237
 701 0136 CB7B     		ldrb	r3, [r1, #15]	@ zero_extendqisi2
 164:Module/remote_control/remote_control.c ****         channels[11] = ((sbusData[16]>>1|sbusData[17]<<7) & 0x07FF);
 702              		.loc 1 164 41 view .LVU238
 703 0138 9B00     		lsls	r3, r3, #2
 704 013a 43EA9213 		orr	r3, r3, r2, lsr #6
 164:Module/remote_control/remote_control.c ****         channels[11] = ((sbusData[16]>>1|sbusData[17]<<7) & 0x07FF);
 705              		.loc 1 164 66 view .LVU239
 706 013e 0A7C     		ldrb	r2, [r1, #16]	@ zero_extendqisi2
 164:Module/remote_control/remote_control.c ****         channels[11] = ((sbusData[16]>>1|sbusData[17]<<7) & 0x07FF);
 707              		.loc 1 164 57 view .LVU240
 708 0140 43EA8223 		orr	r3, r3, r2, lsl #10
 164:Module/remote_control/remote_control.c ****         channels[11] = ((sbusData[16]>>1|sbusData[17]<<7) & 0x07FF);
 709              		.loc 1 164 76 view .LVU241
 710 0144 C3F30A03 		ubfx	r3, r3, #0, #11
 164:Module/remote_control/remote_control.c ****         channels[11] = ((sbusData[16]>>1|sbusData[17]<<7) & 0x07FF);
 711              		.loc 1 164 22 view .LVU242
 712 0148 184A     		ldr	r2, .L48
 713 014a 9382     		strh	r3, [r2, #20]	@ movhi
 165:Module/remote_control/remote_control.c ****         channels[12] = ((sbusData[17]>>4|sbusData[18]<<4) & 0x07FF);
 714              		.loc 1 165 9 is_stmt 1 view .LVU243
 165:Module/remote_control/remote_control.c ****         channels[12] = ((sbusData[17]>>4|sbusData[18]<<4) & 0x07FF);
 715              		.loc 1 165 34 is_stmt 0 view .LVU244
 716 014c 087C     		ldrb	r0, [r1, #16]	@ zero_extendqisi2
 717              	.LVL12:
 165:Module/remote_control/remote_control.c ****         channels[12] = ((sbusData[17]>>4|sbusData[18]<<4) & 0x07FF);
 718              		.loc 1 165 50 view .LVU245
 719 014e 4B7C     		ldrb	r3, [r1, #17]	@ zero_extendqisi2
 165:Module/remote_control/remote_control.c ****         channels[12] = ((sbusData[17]>>4|sbusData[18]<<4) & 0x07FF);
 720              		.loc 1 165 41 view .LVU246
 721 0150 DB01     		lsls	r3, r3, #7
 722 0152 43EA5003 		orr	r3, r3, r0, lsr #1
 165:Module/remote_control/remote_control.c ****         channels[12] = ((sbusData[17]>>4|sbusData[18]<<4) & 0x07FF);
 723              		.loc 1 165 59 view .LVU247
 724 0156 C3F30A03 		ubfx	r3, r3, #0, #11
 165:Module/remote_control/remote_control.c ****         channels[12] = ((sbusData[17]>>4|sbusData[18]<<4) & 0x07FF);
 725              		.loc 1 165 22 view .LVU248
 726 015a D382     		strh	r3, [r2, #22]	@ movhi
 166:Module/remote_control/remote_control.c ****         channels[13] = ((sbusData[18]>>7|sbusData[19]<<1|sbusData[20]<<9) & 0x07FF);
 727              		.loc 1 166 9 is_stmt 1 view .LVU249
 166:Module/remote_control/remote_control.c ****         channels[13] = ((sbusData[18]>>7|sbusData[19]<<1|sbusData[20]<<9) & 0x07FF);
 728              		.loc 1 166 34 is_stmt 0 view .LVU250
 729 015c 487C     		ldrb	r0, [r1, #17]	@ zero_extendqisi2
 166:Module/remote_control/remote_control.c ****         channels[13] = ((sbusData[18]>>7|sbusData[19]<<1|sbusData[20]<<9) & 0x07FF);
 730              		.loc 1 166 50 view .LVU251
 731 015e 8B7C     		ldrb	r3, [r1, #18]	@ zero_extendqisi2
 166:Module/remote_control/remote_control.c ****         channels[13] = ((sbusData[18]>>7|sbusData[19]<<1|sbusData[20]<<9) & 0x07FF);
 732              		.loc 1 166 41 view .LVU252
 733 0160 1B01     		lsls	r3, r3, #4
 734 0162 43EA1013 		orr	r3, r3, r0, lsr #4
 166:Module/remote_control/remote_control.c ****         channels[13] = ((sbusData[18]>>7|sbusData[19]<<1|sbusData[20]<<9) & 0x07FF);
 735              		.loc 1 166 59 view .LVU253
ARM GAS  C:\Users\30514\AppData\Local\Temp\ccxdXenu.s 			page 36


 736 0166 C3F30A03 		ubfx	r3, r3, #0, #11
 166:Module/remote_control/remote_control.c ****         channels[13] = ((sbusData[18]>>7|sbusData[19]<<1|sbusData[20]<<9) & 0x07FF);
 737              		.loc 1 166 22 view .LVU254
 738 016a 1383     		strh	r3, [r2, #24]	@ movhi
 167:Module/remote_control/remote_control.c ****         channels[14] = ((sbusData[20]>>2|sbusData[21]<<6) & 0x07FF);
 739              		.loc 1 167 9 is_stmt 1 view .LVU255
 167:Module/remote_control/remote_control.c ****         channels[14] = ((sbusData[20]>>2|sbusData[21]<<6) & 0x07FF);
 740              		.loc 1 167 34 is_stmt 0 view .LVU256
 741 016c 887C     		ldrb	r0, [r1, #18]	@ zero_extendqisi2
 167:Module/remote_control/remote_control.c ****         channels[14] = ((sbusData[20]>>2|sbusData[21]<<6) & 0x07FF);
 742              		.loc 1 167 50 view .LVU257
 743 016e CB7C     		ldrb	r3, [r1, #19]	@ zero_extendqisi2
 167:Module/remote_control/remote_control.c ****         channels[14] = ((sbusData[20]>>2|sbusData[21]<<6) & 0x07FF);
 744              		.loc 1 167 41 view .LVU258
 745 0170 5B00     		lsls	r3, r3, #1
 746 0172 43EAD013 		orr	r3, r3, r0, lsr #7
 167:Module/remote_control/remote_control.c ****         channels[14] = ((sbusData[20]>>2|sbusData[21]<<6) & 0x07FF);
 747              		.loc 1 167 66 view .LVU259
 748 0176 087D     		ldrb	r0, [r1, #20]	@ zero_extendqisi2
 167:Module/remote_control/remote_control.c ****         channels[14] = ((sbusData[20]>>2|sbusData[21]<<6) & 0x07FF);
 749              		.loc 1 167 57 view .LVU260
 750 0178 43EA4023 		orr	r3, r3, r0, lsl #9
 167:Module/remote_control/remote_control.c ****         channels[14] = ((sbusData[20]>>2|sbusData[21]<<6) & 0x07FF);
 751              		.loc 1 167 75 view .LVU261
 752 017c C3F30A03 		ubfx	r3, r3, #0, #11
 167:Module/remote_control/remote_control.c ****         channels[14] = ((sbusData[20]>>2|sbusData[21]<<6) & 0x07FF);
 753              		.loc 1 167 22 view .LVU262
 754 0180 5383     		strh	r3, [r2, #26]	@ movhi
 168:Module/remote_control/remote_control.c ****         channels[15] = ((sbusData[21]>>5|sbusData[22]<<3) & 0x07FF);
 755              		.loc 1 168 9 is_stmt 1 view .LVU263
 168:Module/remote_control/remote_control.c ****         channels[15] = ((sbusData[21]>>5|sbusData[22]<<3) & 0x07FF);
 756              		.loc 1 168 34 is_stmt 0 view .LVU264
 757 0182 087D     		ldrb	r0, [r1, #20]	@ zero_extendqisi2
 168:Module/remote_control/remote_control.c ****         channels[15] = ((sbusData[21]>>5|sbusData[22]<<3) & 0x07FF);
 758              		.loc 1 168 50 view .LVU265
 759 0184 4B7D     		ldrb	r3, [r1, #21]	@ zero_extendqisi2
 168:Module/remote_control/remote_control.c ****         channels[15] = ((sbusData[21]>>5|sbusData[22]<<3) & 0x07FF);
 760              		.loc 1 168 41 view .LVU266
 761 0186 9B01     		lsls	r3, r3, #6
 762 0188 43EA9003 		orr	r3, r3, r0, lsr #2
 168:Module/remote_control/remote_control.c ****         channels[15] = ((sbusData[21]>>5|sbusData[22]<<3) & 0x07FF);
 763              		.loc 1 168 59 view .LVU267
 764 018c C3F30A03 		ubfx	r3, r3, #0, #11
 168:Module/remote_control/remote_control.c ****         channels[15] = ((sbusData[21]>>5|sbusData[22]<<3) & 0x07FF);
 765              		.loc 1 168 22 view .LVU268
 766 0190 9383     		strh	r3, [r2, #28]	@ movhi
 169:Module/remote_control/remote_control.c ****     }
 767              		.loc 1 169 9 is_stmt 1 view .LVU269
 169:Module/remote_control/remote_control.c ****     }
 768              		.loc 1 169 34 is_stmt 0 view .LVU270
 769 0192 487D     		ldrb	r0, [r1, #21]	@ zero_extendqisi2
 169:Module/remote_control/remote_control.c ****     }
 770              		.loc 1 169 50 view .LVU271
 771 0194 8B7D     		ldrb	r3, [r1, #22]	@ zero_extendqisi2
 169:Module/remote_control/remote_control.c ****     }
 772              		.loc 1 169 41 view .LVU272
 773 0196 DB00     		lsls	r3, r3, #3
ARM GAS  C:\Users\30514\AppData\Local\Temp\ccxdXenu.s 			page 37


 169:Module/remote_control/remote_control.c ****     }
 774              		.loc 1 169 59 view .LVU273
 775 0198 43EA5013 		orr	r3, r3, r0, lsr #5
 169:Module/remote_control/remote_control.c ****     }
 776              		.loc 1 169 22 view .LVU274
 777 019c D383     		strh	r3, [r2, #30]	@ movhi
 778              		.loc 1 172 1 view .LVU275
 779 019e 32E7     		b	.L21
 780              	.LVL13:
 781              	.L40:
 159:Module/remote_control/remote_control.c ****             case 15  : rc->sw4 = 3;break;
 782              		.loc 1 159 24 is_stmt 1 view .LVU276
 159:Module/remote_control/remote_control.c ****             case 15  : rc->sw4 = 3;break;
 783              		.loc 1 159 32 is_stmt 0 view .LVU277
 784 01a0 0223     		movs	r3, #2
 785 01a2 C373     		strb	r3, [r0, #15]
 159:Module/remote_control/remote_control.c ****             case 15  : rc->sw4 = 3;break;
 786              		.loc 1 159 36 is_stmt 1 view .LVU278
 787 01a4 C6E7     		b	.L42
 788              	.L38:
 160:Module/remote_control/remote_control.c ****             default  : rc->sw4 = 1;
 789              		.loc 1 160 24 view .LVU279
 160:Module/remote_control/remote_control.c ****             default  : rc->sw4 = 1;
 790              		.loc 1 160 32 is_stmt 0 view .LVU280
 791 01a6 0323     		movs	r3, #3
 792 01a8 C373     		strb	r3, [r0, #15]
 160:Module/remote_control/remote_control.c ****             default  : rc->sw4 = 1;
 793              		.loc 1 160 36 is_stmt 1 view .LVU281
 794 01aa C3E7     		b	.L42
 795              	.L49:
 796              		.align	2
 797              	.L48:
 798 01ac 00000000 		.word	channels
 799              		.cfi_endproc
 800              	.LFE138:
 802              		.section	.text.get_channel_raw_value,"ax",%progbits
 803              		.align	1
 804              		.global	get_channel_raw_value
 805              		.syntax unified
 806              		.thumb
 807              		.thumb_func
 809              	get_channel_raw_value:
 810              	.LVL14:
 811              	.LFB139:
 173:Module/remote_control/remote_control.c **** 
 174:Module/remote_control/remote_control.c **** //èŽ·å–æŒ‡å®šé€šé“è§£æžåŽçš„å€¼
 175:Module/remote_control/remote_control.c **** int16_t get_channel_raw_value(uint8_t ch_num)
 176:Module/remote_control/remote_control.c **** {
 812              		.loc 1 176 1 view -0
 813              		.cfi_startproc
 814              		@ args = 0, pretend = 0, frame = 0
 815              		@ frame_needed = 0, uses_anonymous_args = 0
 816              		@ link register save eliminated.
 177:Module/remote_control/remote_control.c ****     if(ch_num > 4) return 0;//åªæ”¯æŒ0-4é€šé“
 817              		.loc 1 177 5 view .LVU283
 818              		.loc 1 177 7 is_stmt 0 view .LVU284
 819 0000 0428     		cmp	r0, #4
ARM GAS  C:\Users\30514\AppData\Local\Temp\ccxdXenu.s 			page 38


 820 0002 1AD8     		bhi	.L58
 178:Module/remote_control/remote_control.c **** 
 179:Module/remote_control/remote_control.c ****     #if defined(RC_PROTOCOL_DJI)
 180:Module/remote_control/remote_control.c ****         return rc_ctrl.rc.ch[ch_num];
 181:Module/remote_control/remote_control.c ****     #elif defined(RC_PROTOCOL_TDF)
 182:Module/remote_control/remote_control.c ****         switch (ch_num)
 821              		.loc 1 182 9 is_stmt 1 view .LVU285
 822 0004 0428     		cmp	r0, #4
 823 0006 1AD8     		bhi	.L59
 824 0008 DFE800F0 		tbb	[pc, r0]
 825              	.L53:
 826 000c 03       		.byte	(.L57-.L53)/2
 827 000d 07       		.byte	(.L56-.L53)/2
 828 000e 0B       		.byte	(.L55-.L53)/2
 829 000f 0F       		.byte	(.L54-.L53)/2
 830 0010 13       		.byte	(.L52-.L53)/2
 831 0011 00       		.p2align 1
 832              	.L57:
 183:Module/remote_control/remote_control.c ****         {
 184:Module/remote_control/remote_control.c ****         case 0 : return rc_ctrl1.ch1;
 833              		.loc 1 184 18 view .LVU286
 834              		.loc 1 184 33 is_stmt 0 view .LVU287
 835 0012 0C4B     		ldr	r3, .L60
 836 0014 B3F90000 		ldrsh	r0, [r3]
 837              	.LVL15:
 838              		.loc 1 184 33 view .LVU288
 839 0018 7047     		bx	lr
 840              	.LVL16:
 841              	.L56:
 185:Module/remote_control/remote_control.c ****         case 1 : return rc_ctrl1.ch2;
 842              		.loc 1 185 18 is_stmt 1 view .LVU289
 843              		.loc 1 185 33 is_stmt 0 view .LVU290
 844 001a 0A4B     		ldr	r3, .L60
 845 001c B3F90200 		ldrsh	r0, [r3, #2]
 846              	.LVL17:
 847              		.loc 1 185 33 view .LVU291
 848 0020 7047     		bx	lr
 849              	.LVL18:
 850              	.L55:
 186:Module/remote_control/remote_control.c ****         case 2 : return rc_ctrl1.ch3;
 851              		.loc 1 186 18 is_stmt 1 view .LVU292
 852              		.loc 1 186 33 is_stmt 0 view .LVU293
 853 0022 084B     		ldr	r3, .L60
 854 0024 B3F90400 		ldrsh	r0, [r3, #4]
 855              	.LVL19:
 856              		.loc 1 186 33 view .LVU294
 857 0028 7047     		bx	lr
 858              	.LVL20:
 859              	.L54:
 187:Module/remote_control/remote_control.c ****         case 3 : return rc_ctrl1.ch4;
 860              		.loc 1 187 18 is_stmt 1 view .LVU295
 861              		.loc 1 187 33 is_stmt 0 view .LVU296
 862 002a 064B     		ldr	r3, .L60
 863 002c B3F90600 		ldrsh	r0, [r3, #6]
 864              	.LVL21:
 865              		.loc 1 187 33 view .LVU297
 866 0030 7047     		bx	lr
ARM GAS  C:\Users\30514\AppData\Local\Temp\ccxdXenu.s 			page 39


 867              	.LVL22:
 868              	.L52:
 188:Module/remote_control/remote_control.c ****         case 4 : return rc_ctrl1.Vra;
 869              		.loc 1 188 18 is_stmt 1 view .LVU298
 870              		.loc 1 188 33 is_stmt 0 view .LVU299
 871 0032 044B     		ldr	r3, .L60
 872 0034 B3F90800 		ldrsh	r0, [r3, #8]
 873              	.LVL23:
 874              		.loc 1 188 33 view .LVU300
 875 0038 7047     		bx	lr
 876              	.LVL24:
 877              	.L58:
 177:Module/remote_control/remote_control.c **** 
 878              		.loc 1 177 27 discriminator 1 view .LVU301
 879 003a 0020     		movs	r0, #0
 880              	.LVL25:
 177:Module/remote_control/remote_control.c **** 
 881              		.loc 1 177 27 discriminator 1 view .LVU302
 882 003c 7047     		bx	lr
 883              	.LVL26:
 884              	.L59:
 182:Module/remote_control/remote_control.c ****         {
 885              		.loc 1 182 9 view .LVU303
 886 003e 0020     		movs	r0, #0
 887              	.LVL27:
 189:Module/remote_control/remote_control.c ****         default : return 0;
 190:Module/remote_control/remote_control.c ****         }
 191:Module/remote_control/remote_control.c ****     #else 
 192:Module/remote_control/remote_control.c ****         return 0;
 193:Module/remote_control/remote_control.c ****     #endif
 194:Module/remote_control/remote_control.c **** }
 888              		.loc 1 194 1 view .LVU304
 889 0040 7047     		bx	lr
 890              	.L61:
 891 0042 00BF     		.align	2
 892              	.L60:
 893 0044 00000000 		.word	rc_ctrl1
 894              		.cfi_endproc
 895              	.LFE139:
 897              		.section	.text.get_channel_mapped_value,"ax",%progbits
 898              		.align	1
 899              		.global	get_channel_mapped_value
 900              		.syntax unified
 901              		.thumb
 902              		.thumb_func
 904              	get_channel_mapped_value:
 905              	.LVL28:
 906              	.LFB140:
 195:Module/remote_control/remote_control.c **** 
 196:Module/remote_control/remote_control.c **** //èŽ·å–é¥æŽ§å™¨é€šé“æ˜ å°„åŽçš„å€¼
 197:Module/remote_control/remote_control.c **** int16_t get_channel_mapped_value(uint8_t ch_num,int16_t min,int16_t max)
 198:Module/remote_control/remote_control.c **** {
 907              		.loc 1 198 1 is_stmt 1 view -0
 908              		.cfi_startproc
 909              		@ args = 0, pretend = 0, frame = 0
 910              		@ frame_needed = 0, uses_anonymous_args = 0
 911              		.loc 1 198 1 is_stmt 0 view .LVU306
ARM GAS  C:\Users\30514\AppData\Local\Temp\ccxdXenu.s 			page 40


 912 0000 38B5     		push	{r3, r4, r5, lr}
 913              	.LCFI8:
 914              		.cfi_def_cfa_offset 16
 915              		.cfi_offset 3, -16
 916              		.cfi_offset 4, -12
 917              		.cfi_offset 5, -8
 918              		.cfi_offset 14, -4
 919 0002 0D46     		mov	r5, r1
 920 0004 1446     		mov	r4, r2
 199:Module/remote_control/remote_control.c ****     int16_t raw = get_channel_raw_value(ch_num);
 921              		.loc 1 199 5 is_stmt 1 view .LVU307
 922              		.loc 1 199 19 is_stmt 0 view .LVU308
 923 0006 FFF7FEFF 		bl	get_channel_raw_value
 924              	.LVL29:
 200:Module/remote_control/remote_control.c **** 
 201:Module/remote_control/remote_control.c ****     //ç¡®å®šåŽŸå§‹å€¼èŒƒå›´
 202:Module/remote_control/remote_control.c ****     #if defined(RC_PROTOCOL_DJI)
 203:Module/remote_control/remote_control.c ****         const int16_t RAW_MIN = -660;
 204:Module/remote_control/remote_control.c ****         const int16_t RAW_MAX =  660;
 205:Module/remote_control/remote_control.c ****     #elif defined(RC_PROTOCOL_TDF)
 206:Module/remote_control/remote_control.c ****         const int16_t RAW_MIN = -1024;
 925              		.loc 1 206 9 is_stmt 1 view .LVU309
 207:Module/remote_control/remote_control.c ****         const int16_t RAW_MAX =  1024;
 926              		.loc 1 207 9 view .LVU310
 208:Module/remote_control/remote_control.c ****     #else
 209:Module/remote_control/remote_control.c ****         return 0;
 210:Module/remote_control/remote_control.c ****     #endif
 211:Module/remote_control/remote_control.c **** 
 212:Module/remote_control/remote_control.c ****     //æ‰§è¡Œçº¿æ€§æ˜ å°„ 
 213:Module/remote_control/remote_control.c ****     return min + (max-min)*(raw-RAW_MIN)/(RAW_MAX-RAW_MIN);  
 927              		.loc 1 213 5 view .LVU311
 928              		.loc 1 213 22 is_stmt 0 view .LVU312
 929 000a 621B     		subs	r2, r4, r5
 930              		.loc 1 213 32 view .LVU313
 931 000c 00F58060 		add	r0, r0, #1024
 932              	.LVL30:
 933              		.loc 1 213 27 view .LVU314
 934 0010 00FB02F2 		mul	r2, r0, r2
 935              		.loc 1 213 41 view .LVU315
 936 0014 002A     		cmp	r2, #0
 937 0016 03DB     		blt	.L65
 938              	.L63:
 939              		.loc 1 213 16 view .LVU316
 940 0018 05EBE220 		add	r0, r5, r2, asr #11
 941              	.LVL31:
 214:Module/remote_control/remote_control.c **** }
 942              		.loc 1 214 1 view .LVU317
 943 001c 00B2     		sxth	r0, r0
 944 001e 38BD     		pop	{r3, r4, r5, pc}
 945              	.LVL32:
 946              	.L65:
 213:Module/remote_control/remote_control.c **** }
 947              		.loc 1 213 41 view .LVU318
 948 0020 02F2FF72 		addw	r2, r2, #2047
 949 0024 F8E7     		b	.L63
 950              		.cfi_endproc
 951              	.LFE140:
ARM GAS  C:\Users\30514\AppData\Local\Temp\ccxdXenu.s 			page 41


 953              		.section	.text.USART3_IRQHandler,"ax",%progbits
 954              		.align	1
 955              		.global	USART3_IRQHandler
 956              		.syntax unified
 957              		.thumb
 958              		.thumb_func
 960              	USART3_IRQHandler:
 961              	.LFB141:
 215:Module/remote_control/remote_control.c **** 
 216:Module/remote_control/remote_control.c **** 
 217:Module/remote_control/remote_control.c **** //ä¸­æ–­å¤„ç†é€»è¾‘
 218:Module/remote_control/remote_control.c **** void USART3_IRQHandler()
 219:Module/remote_control/remote_control.c **** {
 962              		.loc 1 219 1 is_stmt 1 view -0
 963              		.cfi_startproc
 964              		@ args = 0, pretend = 0, frame = 8
 965              		@ frame_needed = 0, uses_anonymous_args = 0
 966 0000 00B5     		push	{lr}
 967              	.LCFI9:
 968              		.cfi_def_cfa_offset 4
 969              		.cfi_offset 14, -4
 970 0002 83B0     		sub	sp, sp, #12
 971              	.LCFI10:
 972              		.cfi_def_cfa_offset 16
 220:Module/remote_control/remote_control.c ****     
 221:Module/remote_control/remote_control.c ****     if(huart3.Instance->SR & UART_FLAG_RXNE)//æŽ¥æ”¶æ•°æ®å¯„å­˜å™¨éžç©º,å³ç¼“å†²åŒºå†…æŽ¥æ”¶åˆ°ä
 973              		.loc 1 221 5 view .LVU320
 974              		.loc 1 221 14 is_stmt 0 view .LVU321
 975 0004 2F4B     		ldr	r3, .L71
 976 0006 1B68     		ldr	r3, [r3]
 977              		.loc 1 221 23 view .LVU322
 978 0008 1A68     		ldr	r2, [r3]
 979              		.loc 1 221 7 view .LVU323
 980 000a 12F0200F 		tst	r2, #32
 981 000e 09D0     		beq	.L67
 222:Module/remote_control/remote_control.c ****     {
 223:Module/remote_control/remote_control.c ****         __HAL_UART_CLEAR_PEFLAG(&huart3);//æ¸…é™¤æ•°æ®æœªè¢«è¯»å–æ ‡å¿—ï¼Œä¸éœ€åšå…¶ä»–å¤„ç†ï¼
 982              		.loc 1 223 9 is_stmt 1 view .LVU324
 983              	.LBB10:
 984              		.loc 1 223 9 view .LVU325
 985 0010 0022     		movs	r2, #0
 986 0012 0092     		str	r2, [sp]
 987              		.loc 1 223 9 view .LVU326
 988 0014 1A68     		ldr	r2, [r3]
 989 0016 0092     		str	r2, [sp]
 990              		.loc 1 223 9 view .LVU327
 991 0018 5B68     		ldr	r3, [r3, #4]
 992 001a 0093     		str	r3, [sp]
 993              		.loc 1 223 9 view .LVU328
 994 001c 009B     		ldr	r3, [sp]
 995              	.LBE10:
 996              		.loc 1 223 9 view .LVU329
 997              	.L66:
 224:Module/remote_control/remote_control.c ****     }
 225:Module/remote_control/remote_control.c ****     else if(USART3->SR & UART_FLAG_IDLE)//å¦‚æžœæ•°æ®æŽ¥æ”¶å™¨ä¸ºç©ºï¼Œå³ç›‘æµ‹åˆ°ä¸²å£æ€»çº¿ç©º
 226:Module/remote_control/remote_control.c ****     {
 227:Module/remote_control/remote_control.c ****         //é™æ€å˜é‡åˆå§‹åŒ–(ç”¨äºŽä¿å­˜æŽ¥æ”¶æ•°æ®çš„é•¿åº¦)
ARM GAS  C:\Users\30514\AppData\Local\Temp\ccxdXenu.s 			page 42


 228:Module/remote_control/remote_control.c ****         static uint16_t this_time_rx_len = 0;
 229:Module/remote_control/remote_control.c **** 
 230:Module/remote_control/remote_control.c ****         __HAL_UART_CLEAR_PEFLAG(&huart3); //æ¸…é™¤ç©ºé—²æ ‡å¿—
 231:Module/remote_control/remote_control.c **** 
 232:Module/remote_control/remote_control.c ****         if ((hdma_usart3_rx.Instance->CR & DMA_SxCR_CT) == RESET)//ä½¿ç”¨ç¼“å†²åŒº0
 233:Module/remote_control/remote_control.c ****         {
 234:Module/remote_control/remote_control.c ****             //åœæ­¢DMAä¼ è¾“ï¼Œé˜²æ­¢é…ç½®æœŸé—´å‘ç”Ÿæ•°æ®ä¼ è¾“
 235:Module/remote_control/remote_control.c ****             __HAL_DMA_DISABLE(&hdma_usart3_rx);
 236:Module/remote_control/remote_control.c **** 
 237:Module/remote_control/remote_control.c ****             //è®¡ç®—æŽ¥å—æ•°æ®é•¿åº¦
 238:Module/remote_control/remote_control.c ****             this_time_rx_len = SBUS_RX_BUF_NUM - hdma_usart3_rx.Instance->NDTR;
 239:Module/remote_control/remote_control.c **** 
 240:Module/remote_control/remote_control.c ****             //é‡ç½®DMAè®¡æ•°å™¨
 241:Module/remote_control/remote_control.c ****             hdma_usart3_rx.Instance->NDTR = SBUS_RX_BUF_NUM;
 242:Module/remote_control/remote_control.c **** 
 243:Module/remote_control/remote_control.c ****             //åˆ‡æ¢åˆ°ç¼“å†²åŒº1
 244:Module/remote_control/remote_control.c ****             hdma_usart3_rx.Instance->CR |= DMA_SxCR_CT;
 245:Module/remote_control/remote_control.c ****             
 246:Module/remote_control/remote_control.c ****             //é‡å¯DMA
 247:Module/remote_control/remote_control.c ****             __HAL_DMA_ENABLE(&hdma_usart3_rx);
 248:Module/remote_control/remote_control.c **** 
 249:Module/remote_control/remote_control.c ****             //æ•°æ®å¤„ç†
 250:Module/remote_control/remote_control.c ****             if(this_time_rx_len == RC_FRAME_LENGTH)//ä»…åœ¨æŽ¥æ”¶åˆ°çš„æ•°æ®ä¸ªæ•°æ­£å¥½ç­‰äºŽé¥æ
 251:Module/remote_control/remote_control.c ****             {
 252:Module/remote_control/remote_control.c ****                 //sbus_to_rc(sbus_rx_buf[0], &rc_ctrl);
 253:Module/remote_control/remote_control.c ****                 //Sbus_Data_Count(&rc_ctrl1,sbus_rx_buf[0]);//å¤„ç†DMA0çš„æ•°æ®
 254:Module/remote_control/remote_control.c ****                 //åè®®é€‰æ‹©
 255:Module/remote_control/remote_control.c ****                 #if defined(RC_PROTOCOL_DJI)
 256:Module/remote_control/remote_control.c ****                     sbus_to_rc(sbus_rx_buf[0], &rc_ctrl);
 257:Module/remote_control/remote_control.c ****                 #elif defined(RC_PROTOCOL_TDF)
 258:Module/remote_control/remote_control.c ****                     Sbus_Data_Count(&rc_ctrl1, sbus_rx_buf[0]);
 259:Module/remote_control/remote_control.c ****                 #else 
 260:Module/remote_control/remote_control.c ****                     #error "No remote control protocol defined! Please add #define RC_PROTOCOL_DJI 
 261:Module/remote_control/remote_control.c ****                 #endif
 262:Module/remote_control/remote_control.c **** 
 263:Module/remote_control/remote_control.c **** 
 264:Module/remote_control/remote_control.c ****             }
 265:Module/remote_control/remote_control.c ****         }
 266:Module/remote_control/remote_control.c ****         else//ä½¿ç”¨ç¼“å†²åŒº1
 267:Module/remote_control/remote_control.c ****         {
 268:Module/remote_control/remote_control.c ****             //åœæ­¢DMAè¿è¾“ï¼Œé˜²æ­¢è¿è¾“æœŸé—´å‘ç”Ÿæ•°æ®ä¼ è¾“
 269:Module/remote_control/remote_control.c ****             __HAL_DMA_DISABLE(&hdma_usart3_rx);
 270:Module/remote_control/remote_control.c **** 
 271:Module/remote_control/remote_control.c ****             //get receive data length, length = set_data_length - remain_lengthï¼ŒèŽ·å¾—æ•°æ®ä¼ è¾
 272:Module/remote_control/remote_control.c ****             this_time_rx_len = SBUS_RX_BUF_NUM - hdma_usart3_rx.Instance->NDTR;
 273:Module/remote_control/remote_control.c **** 
 274:Module/remote_control/remote_control.c ****             //reset set_data_lenghté‡ç½®DMAè®¡æ•°å™¨
 275:Module/remote_control/remote_control.c ****             hdma_usart3_rx.Instance->NDTR = SBUS_RX_BUF_NUM;
 276:Module/remote_control/remote_control.c **** 
 277:Module/remote_control/remote_control.c ****             //set memory buffer 0 åˆ‡æ¢åˆ°DMA0
 278:Module/remote_control/remote_control.c ****             DMA1_Stream1->CR &= ~(DMA_SxCR_CT);
 279:Module/remote_control/remote_control.c ****             
 280:Module/remote_control/remote_control.c ****             //enable DMAä½¿èƒ½DMA
 281:Module/remote_control/remote_control.c ****             __HAL_DMA_ENABLE(&hdma_usart3_rx);
 282:Module/remote_control/remote_control.c **** 
 283:Module/remote_control/remote_control.c ****             //æ•°æ®å¤„ç†
 284:Module/remote_control/remote_control.c ****             if(this_time_rx_len == RC_FRAME_LENGTH)
ARM GAS  C:\Users\30514\AppData\Local\Temp\ccxdXenu.s 			page 43


 285:Module/remote_control/remote_control.c ****             {
 286:Module/remote_control/remote_control.c ****                 //sbus_to_rc(sbus_rx_buf[1], &rc_ctrl);
 287:Module/remote_control/remote_control.c ****                 //Sbus_Data_Count(&rc_ctrl1,sbus_rx_buf[1]);
 288:Module/remote_control/remote_control.c ****                 //åè®®é€‰æ‹©
 289:Module/remote_control/remote_control.c ****                 #if defined(RC_PROTOCOL_DJI)
 290:Module/remote_control/remote_control.c ****                     sbus_to_rc(sbus_rx_buf[1], &rc_ctrl);
 291:Module/remote_control/remote_control.c ****                 #elif defined(RC_PROTOCOL_TDF)
 292:Module/remote_control/remote_control.c ****                     Sbus_Data_Count(&rc_ctrl1, sbus_rx_buf[1]);
 293:Module/remote_control/remote_control.c ****                 #else 
 294:Module/remote_control/remote_control.c ****                     #error "No remote control protocol defined! Please add #define RC_PROTOCOL_DJI 
 295:Module/remote_control/remote_control.c ****                 #endif
 296:Module/remote_control/remote_control.c ****             }
 297:Module/remote_control/remote_control.c ****         }
 298:Module/remote_control/remote_control.c ****     }
 299:Module/remote_control/remote_control.c **** }
 998              		.loc 1 299 1 is_stmt 0 view .LVU330
 999 001e 03B0     		add	sp, sp, #12
 1000              	.LCFI11:
 1001              		.cfi_remember_state
 1002              		.cfi_def_cfa_offset 4
 1003              		@ sp needed
 1004 0020 5DF804FB 		ldr	pc, [sp], #4
 1005              	.L67:
 1006              	.LCFI12:
 1007              		.cfi_restore_state
 225:Module/remote_control/remote_control.c ****     {
 1008              		.loc 1 225 10 is_stmt 1 view .LVU331
 225:Module/remote_control/remote_control.c ****     {
 1009              		.loc 1 225 19 is_stmt 0 view .LVU332
 1010 0024 284A     		ldr	r2, .L71+4
 1011 0026 1268     		ldr	r2, [r2]
 225:Module/remote_control/remote_control.c ****     {
 1012              		.loc 1 225 12 view .LVU333
 1013 0028 12F0100F 		tst	r2, #16
 1014 002c F7D0     		beq	.L66
 1015              	.LBB11:
 228:Module/remote_control/remote_control.c **** 
 1016              		.loc 1 228 9 is_stmt 1 view .LVU334
 230:Module/remote_control/remote_control.c **** 
 1017              		.loc 1 230 9 view .LVU335
 1018              	.LBB12:
 230:Module/remote_control/remote_control.c **** 
 1019              		.loc 1 230 9 view .LVU336
 1020 002e 0022     		movs	r2, #0
 1021 0030 0192     		str	r2, [sp, #4]
 230:Module/remote_control/remote_control.c **** 
 1022              		.loc 1 230 9 view .LVU337
 1023 0032 1A68     		ldr	r2, [r3]
 1024 0034 0192     		str	r2, [sp, #4]
 230:Module/remote_control/remote_control.c **** 
 1025              		.loc 1 230 9 view .LVU338
 1026 0036 5B68     		ldr	r3, [r3, #4]
 1027 0038 0193     		str	r3, [sp, #4]
 230:Module/remote_control/remote_control.c **** 
 1028              		.loc 1 230 9 view .LVU339
 1029 003a 019B     		ldr	r3, [sp, #4]
 1030              	.LBE12:
ARM GAS  C:\Users\30514\AppData\Local\Temp\ccxdXenu.s 			page 44


 230:Module/remote_control/remote_control.c **** 
 1031              		.loc 1 230 9 view .LVU340
 232:Module/remote_control/remote_control.c ****         {
 1032              		.loc 1 232 9 view .LVU341
 232:Module/remote_control/remote_control.c ****         {
 1033              		.loc 1 232 28 is_stmt 0 view .LVU342
 1034 003c 234B     		ldr	r3, .L71+8
 1035 003e 1B68     		ldr	r3, [r3]
 232:Module/remote_control/remote_control.c ****         {
 1036              		.loc 1 232 37 view .LVU343
 1037 0040 1A68     		ldr	r2, [r3]
 232:Module/remote_control/remote_control.c ****         {
 1038              		.loc 1 232 12 view .LVU344
 1039 0042 12F4002F 		tst	r2, #524288
 1040 0046 1DD1     		bne	.L69
 235:Module/remote_control/remote_control.c **** 
 1041              		.loc 1 235 13 is_stmt 1 view .LVU345
 1042 0048 1A68     		ldr	r2, [r3]
 1043 004a 22F00102 		bic	r2, r2, #1
 1044 004e 1A60     		str	r2, [r3]
 238:Module/remote_control/remote_control.c **** 
 1045              		.loc 1 238 13 view .LVU346
 238:Module/remote_control/remote_control.c **** 
 1046              		.loc 1 238 64 is_stmt 0 view .LVU347
 1047 0050 1E48     		ldr	r0, .L71+8
 1048 0052 0268     		ldr	r2, [r0]
 238:Module/remote_control/remote_control.c **** 
 1049              		.loc 1 238 73 view .LVU348
 1050 0054 5368     		ldr	r3, [r2, #4]
 238:Module/remote_control/remote_control.c **** 
 1051              		.loc 1 238 48 view .LVU349
 1052 0056 C3F13203 		rsb	r3, r3, #50
 1053 005a 9BB2     		uxth	r3, r3
 238:Module/remote_control/remote_control.c **** 
 1054              		.loc 1 238 30 view .LVU350
 1055 005c 1C49     		ldr	r1, .L71+12
 1056 005e 0B80     		strh	r3, [r1]	@ movhi
 241:Module/remote_control/remote_control.c **** 
 1057              		.loc 1 241 13 is_stmt 1 view .LVU351
 241:Module/remote_control/remote_control.c **** 
 1058              		.loc 1 241 43 is_stmt 0 view .LVU352
 1059 0060 3221     		movs	r1, #50
 1060 0062 5160     		str	r1, [r2, #4]
 244:Module/remote_control/remote_control.c ****             
 1061              		.loc 1 244 13 is_stmt 1 view .LVU353
 244:Module/remote_control/remote_control.c ****             
 1062              		.loc 1 244 36 is_stmt 0 view .LVU354
 1063 0064 1168     		ldr	r1, [r2]
 244:Module/remote_control/remote_control.c ****             
 1064              		.loc 1 244 41 view .LVU355
 1065 0066 41F40021 		orr	r1, r1, #524288
 1066 006a 1160     		str	r1, [r2]
 247:Module/remote_control/remote_control.c **** 
 1067              		.loc 1 247 13 is_stmt 1 view .LVU356
 1068 006c 0168     		ldr	r1, [r0]
 1069 006e 0A68     		ldr	r2, [r1]
 1070 0070 42F00102 		orr	r2, r2, #1
ARM GAS  C:\Users\30514\AppData\Local\Temp\ccxdXenu.s 			page 45


 1071 0074 0A60     		str	r2, [r1]
 250:Module/remote_control/remote_control.c ****             {
 1072              		.loc 1 250 13 view .LVU357
 250:Module/remote_control/remote_control.c ****             {
 1073              		.loc 1 250 15 is_stmt 0 view .LVU358
 1074 0076 192B     		cmp	r3, #25
 1075 0078 D1D1     		bne	.L66
 258:Module/remote_control/remote_control.c ****                 #else 
 1076              		.loc 1 258 21 is_stmt 1 view .LVU359
 1077 007a 1649     		ldr	r1, .L71+16
 1078 007c 1648     		ldr	r0, .L71+20
 1079 007e FFF7FEFF 		bl	Sbus_Data_Count
 1080              	.LVL33:
 1081 0082 CCE7     		b	.L66
 1082              	.L69:
 269:Module/remote_control/remote_control.c **** 
 1083              		.loc 1 269 13 view .LVU360
 1084 0084 1A68     		ldr	r2, [r3]
 1085 0086 22F00102 		bic	r2, r2, #1
 1086 008a 1A60     		str	r2, [r3]
 272:Module/remote_control/remote_control.c **** 
 1087              		.loc 1 272 13 view .LVU361
 272:Module/remote_control/remote_control.c **** 
 1088              		.loc 1 272 64 is_stmt 0 view .LVU362
 1089 008c 0F49     		ldr	r1, .L71+8
 1090 008e 0A68     		ldr	r2, [r1]
 272:Module/remote_control/remote_control.c **** 
 1091              		.loc 1 272 73 view .LVU363
 1092 0090 5368     		ldr	r3, [r2, #4]
 272:Module/remote_control/remote_control.c **** 
 1093              		.loc 1 272 48 view .LVU364
 1094 0092 C3F13203 		rsb	r3, r3, #50
 1095 0096 9BB2     		uxth	r3, r3
 272:Module/remote_control/remote_control.c **** 
 1096              		.loc 1 272 30 view .LVU365
 1097 0098 0D48     		ldr	r0, .L71+12
 1098 009a 0380     		strh	r3, [r0]	@ movhi
 275:Module/remote_control/remote_control.c **** 
 1099              		.loc 1 275 13 is_stmt 1 view .LVU366
 275:Module/remote_control/remote_control.c **** 
 1100              		.loc 1 275 43 is_stmt 0 view .LVU367
 1101 009c 3220     		movs	r0, #50
 1102 009e 5060     		str	r0, [r2, #4]
 278:Module/remote_control/remote_control.c ****             
 1103              		.loc 1 278 13 is_stmt 1 view .LVU368
 278:Module/remote_control/remote_control.c ****             
 1104              		.loc 1 278 25 is_stmt 0 view .LVU369
 1105 00a0 0E48     		ldr	r0, .L71+24
 1106 00a2 826A     		ldr	r2, [r0, #40]
 278:Module/remote_control/remote_control.c ****             
 1107              		.loc 1 278 30 view .LVU370
 1108 00a4 22F40022 		bic	r2, r2, #524288
 1109 00a8 8262     		str	r2, [r0, #40]
 281:Module/remote_control/remote_control.c **** 
 1110              		.loc 1 281 13 is_stmt 1 view .LVU371
 1111 00aa 0968     		ldr	r1, [r1]
 1112 00ac 0A68     		ldr	r2, [r1]
ARM GAS  C:\Users\30514\AppData\Local\Temp\ccxdXenu.s 			page 46


 1113 00ae 42F00102 		orr	r2, r2, #1
 1114 00b2 0A60     		str	r2, [r1]
 284:Module/remote_control/remote_control.c ****             {
 1115              		.loc 1 284 13 view .LVU372
 284:Module/remote_control/remote_control.c ****             {
 1116              		.loc 1 284 15 is_stmt 0 view .LVU373
 1117 00b4 192B     		cmp	r3, #25
 1118 00b6 B2D1     		bne	.L66
 292:Module/remote_control/remote_control.c ****                 #else 
 1119              		.loc 1 292 21 is_stmt 1 view .LVU374
 1120 00b8 0949     		ldr	r1, .L71+28
 1121 00ba 0748     		ldr	r0, .L71+20
 1122 00bc FFF7FEFF 		bl	Sbus_Data_Count
 1123              	.LVL34:
 1124              	.LBE11:
 1125              		.loc 1 299 1 is_stmt 0 view .LVU375
 1126 00c0 ADE7     		b	.L66
 1127              	.L72:
 1128 00c2 00BF     		.align	2
 1129              	.L71:
 1130 00c4 00000000 		.word	huart3
 1131 00c8 00480040 		.word	1073760256
 1132 00cc 00000000 		.word	hdma_usart3_rx
 1133 00d0 00000000 		.word	this_time_rx_len.0
 1134 00d4 00000000 		.word	sbus_rx_buf
 1135 00d8 00000000 		.word	rc_ctrl1
 1136 00dc 00600240 		.word	1073897472
 1137 00e0 32000000 		.word	sbus_rx_buf+50
 1138              		.cfi_endproc
 1139              	.LFE141:
 1141              		.section	.text.remote_control_active,"ax",%progbits
 1142              		.align	1
 1143              		.global	remote_control_active
 1144              		.syntax unified
 1145              		.thumb
 1146              		.thumb_func
 1148              	remote_control_active:
 1149              	.LFB142:
 300:Module/remote_control/remote_control.c **** 
 301:Module/remote_control/remote_control.c **** bool remote_control_active(void)
 302:Module/remote_control/remote_control.c **** {
 1150              		.loc 1 302 1 is_stmt 1 view -0
 1151              		.cfi_startproc
 1152              		@ args = 0, pretend = 0, frame = 0
 1153              		@ frame_needed = 0, uses_anonymous_args = 0
 1154              		@ link register save eliminated.
 303:Module/remote_control/remote_control.c ****     return true;
 1155              		.loc 1 303 5 view .LVU377
 304:Module/remote_control/remote_control.c **** }...
 1156              		.loc 1 304 1 is_stmt 0 view .LVU378
 1157 0000 0120     		movs	r0, #1
 1158 0002 7047     		bx	lr
 1159              		.cfi_endproc
 1160              	.LFE142:
 1162              		.section	.bss.this_time_rx_len.0,"aw",%nobits
 1163              		.align	1
 1166              	this_time_rx_len.0:
ARM GAS  C:\Users\30514\AppData\Local\Temp\ccxdXenu.s 			page 47


 1167 0000 0000     		.space	2
 1168              		.global	rc_ctrl1
 1169              		.section	.bss.rc_ctrl1,"aw",%nobits
 1170              		.align	2
 1173              	rc_ctrl1:
 1174 0000 00000000 		.space	16
 1174      00000000 
 1174      00000000 
 1174      00000000 
 1175              		.global	rc_ctrl
 1176              		.section	.bss.rc_ctrl,"aw",%nobits
 1177              		.align	2
 1180              	rc_ctrl:
 1181 0000 00000000 		.space	22
 1181      00000000 
 1181      00000000 
 1181      00000000 
 1181      00000000 
 1182              		.global	channels
 1183              		.section	.bss.channels,"aw",%nobits
 1184              		.align	2
 1187              	channels:
 1188 0000 00000000 		.space	36
 1188      00000000 
 1188      00000000 
 1188      00000000 
 1188      00000000 
 1189              		.section	.bss.sbus_rx_buf,"aw",%nobits
 1190              		.align	2
 1193              	sbus_rx_buf:
 1194 0000 00000000 		.space	100
 1194      00000000 
 1194      00000000 
 1194      00000000 
 1194      00000000 
 1195              		.text
 1196              	.Letext0:
 1197              		.file 3 "D:/enviroment/msys2/mingw64/arm-none-eabi/include/machine/_default_types.h"
 1198              		.file 4 "D:/enviroment/msys2/mingw64/arm-none-eabi/include/sys/_stdint.h"
 1199              		.file 5 "Drivers/CMSIS/Device/ST/STM32F4xx/Include/stm32f446xx.h"
 1200              		.file 6 "Drivers/CMSIS/Device/ST/STM32F4xx/Include/stm32f4xx.h"
 1201              		.file 7 "Drivers/STM32F4xx_HAL_Driver/Inc/stm32f4xx_hal_def.h"
 1202              		.file 8 "Drivers/STM32F4xx_HAL_Driver/Inc/stm32f4xx_hal_dma.h"
 1203              		.file 9 "Drivers/STM32F4xx_HAL_Driver/Inc/stm32f4xx_hal_uart.h"
 1204              		.file 10 "Core/Inc/usart.h"
 1205              		.file 11 "Module/remote_control/Remote_Control.h"
ARM GAS  C:\Users\30514\AppData\Local\Temp\ccxdXenu.s 			page 48

