ARM GAS  C:\Users\30514\AppData\Local\Temp\ccvtJF2o.s 			page 1


   1              		.cpu cortex-m4
   2              		.arch armv7e-m
   3              		.fpu fpv4-sp-d16
   4              		.eabi_attribute 27, 1
   5              		.eabi_attribute 28, 1
   6              		.eabi_attribute 20, 1
   7              		.eabi_attribute 21, 1
   8              		.eabi_attribute 23, 3
   9              		.eabi_attribute 24, 1
  10              		.eabi_attribute 25, 1
  11              		.eabi_attribute 26, 1
  12              		.eabi_attribute 30, 1
  13              		.eabi_attribute 34, 1
  14              		.eabi_attribute 18, 4
  15              		.file	"task.c"
  16              		.text
  17              	.Ltext0:
  18              		.cfi_sections	.debug_frame
  19              		.file 1 "Module/task/task.c"
  20              		.section	.text.task_1ms,"ax",%progbits
  21              		.align	1
  22              		.global	task_1ms
  23              		.syntax unified
  24              		.thumb
  25              		.thumb_func
  27              	task_1ms:
  28              	.LFB135:
   1:Module/task/task.c **** #include "task.h"
   2:Module/task/task.c **** #include "scheduler.h"
   3:Module/task/task.c **** #include "driver.h"
   4:Module/task/task.c **** #include "dm_ctrl.h"
   5:Module/task/task.c **** #include "dm_drv.h"
   6:Module/task/task.c **** #include "arm_control.h"
   7:Module/task/task.c **** 
   8:Module/task/task.c **** void task_init(void)
   9:Module/task/task.c **** {
  10:Module/task/task.c **** 	//初始化调度器
  11:Module/task/task.c **** 	scheduler_init();
  12:Module/task/task.c **** 
  13:Module/task/task.c **** 	//创建各周期任务
  14:Module/task/task.c ****     create_task(task_1ms, 1, "1ms Fast Loop");
  15:Module/task/task.c ****     create_task(task_5ms, 5, "5ms Control Loop");
  16:Module/task/task.c ****     create_task(task_10ms, 10, "10ms Arm Update");
  17:Module/task/task.c ****     create_task(task_100ms, 100, "100ms Debug Output");
  18:Module/task/task.c **** }
  19:Module/task/task.c **** 
  20:Module/task/task.c **** void task_1ms(void)
  21:Module/task/task.c **** {
  29              		.loc 1 21 1 view -0
  30              		.cfi_startproc
  31              		@ args = 0, pretend = 0, frame = 0
  32              		@ frame_needed = 0, uses_anonymous_args = 0
  33              		@ link register save eliminated.
  22:Module/task/task.c **** 
  23:Module/task/task.c **** }
  34              		.loc 1 23 1 view .LVU1
  35 0000 7047     		bx	lr
ARM GAS  C:\Users\30514\AppData\Local\Temp\ccvtJF2o.s 			page 2


  36              		.cfi_endproc
  37              	.LFE135:
  39              		.section	.text.task_5ms,"ax",%progbits
  40              		.align	1
  41              		.global	task_5ms
  42              		.syntax unified
  43              		.thumb
  44              		.thumb_func
  46              	task_5ms:
  47              	.LFB137:
  24:Module/task/task.c **** 
  25:Module/task/task.c **** void task_2ms(void)
  26:Module/task/task.c **** {
  27:Module/task/task.c **** 
  28:Module/task/task.c **** }
  29:Module/task/task.c **** 
  30:Module/task/task.c **** void task_5ms(void)
  31:Module/task/task.c **** {
  48              		.loc 1 31 1 view -0
  49              		.cfi_startproc
  50              		@ args = 0, pretend = 0, frame = 0
  51              		@ frame_needed = 0, uses_anonymous_args = 0
  52 0000 08B5     		push	{r3, lr}
  53              	.LCFI0:
  54              		.cfi_def_cfa_offset 8
  55              		.cfi_offset 3, -8
  56              		.cfi_offset 14, -4
  32:Module/task/task.c **** 	ctrl_send(ALL_MOTORS);
  57              		.loc 1 32 2 view .LVU3
  58 0002 0320     		movs	r0, #3
  59 0004 FFF7FEFF 		bl	ctrl_send
  60              	.LVL0:
  33:Module/task/task.c **** }
  61              		.loc 1 33 1 is_stmt 0 view .LVU4
  62 0008 08BD     		pop	{r3, pc}
  63              		.cfi_endproc
  64              	.LFE137:
  66              		.section	.text.task_10ms,"ax",%progbits
  67              		.align	1
  68              		.global	task_10ms
  69              		.syntax unified
  70              		.thumb
  71              		.thumb_func
  73              	task_10ms:
  74              	.LFB138:
  34:Module/task/task.c **** 
  35:Module/task/task.c **** void task_10ms(void)
  36:Module/task/task.c **** {
  75              		.loc 1 36 1 is_stmt 1 view -0
  76              		.cfi_startproc
  77              		@ args = 0, pretend = 0, frame = 0
  78              		@ frame_needed = 0, uses_anonymous_args = 0
  79 0000 08B5     		push	{r3, lr}
  80              	.LCFI1:
  81              		.cfi_def_cfa_offset 8
  82              		.cfi_offset 3, -8
  83              		.cfi_offset 14, -4
ARM GAS  C:\Users\30514\AppData\Local\Temp\ccvtJF2o.s 			page 3


  37:Module/task/task.c **** 	ArmControl_Update();
  84              		.loc 1 37 2 view .LVU6
  85 0002 FFF7FEFF 		bl	ArmControl_Update
  86              	.LVL1:
  38:Module/task/task.c **** }
  87              		.loc 1 38 1 is_stmt 0 view .LVU7
  88 0006 08BD     		pop	{r3, pc}
  89              		.cfi_endproc
  90              	.LFE138:
  92              		.section	.text.task_100ms,"ax",%progbits
  93              		.align	1
  94              		.global	task_100ms
  95              		.syntax unified
  96              		.thumb
  97              		.thumb_func
  99              	task_100ms:
 100              	.LFB139:
  39:Module/task/task.c **** 
  40:Module/task/task.c **** void task_100ms(void)
  41:Module/task/task.c **** {
 101              		.loc 1 41 1 is_stmt 1 view -0
 102              		.cfi_startproc
 103              		@ args = 0, pretend = 0, frame = 24
 104              		@ frame_needed = 0, uses_anonymous_args = 0
  42:Module/task/task.c **** 	// 调试信息输出
  43:Module/task/task.c ****     static uint8_t count = 0;
 105              		.loc 1 43 5 view .LVU9
  44:Module/task/task.c ****     
  45:Module/task/task.c ****     if(count++ >= 10) 
 106              		.loc 1 45 5 view .LVU10
 107              		.loc 1 45 13 is_stmt 0 view .LVU11
 108 0000 0D4A     		ldr	r2, .L13
 109 0002 1378     		ldrb	r3, [r2]	@ zero_extendqisi2
 110 0004 591C     		adds	r1, r3, #1
 111 0006 1170     		strb	r1, [r2]
 112              		.loc 1 45 7 view .LVU12
 113 0008 092B     		cmp	r3, #9
 114 000a 00D8     		bhi	.L12
 115 000c 7047     		bx	lr
 116              	.L12:
  41:Module/task/task.c **** 	// 调试信息输出
 117              		.loc 1 41 1 view .LVU13
 118 000e 10B5     		push	{r4, lr}
 119              	.LCFI2:
 120              		.cfi_def_cfa_offset 8
 121              		.cfi_offset 4, -8
 122              		.cfi_offset 14, -4
 123 0010 86B0     		sub	sp, sp, #24
 124              	.LCFI3:
 125              		.cfi_def_cfa_offset 32
 126              	.LBB2:
  46:Module/task/task.c **** 	{ // 每秒输出一次
  47:Module/task/task.c ****         count = 0;
 127              		.loc 1 47 9 is_stmt 1 view .LVU14
 128              		.loc 1 47 15 is_stmt 0 view .LVU15
 129 0012 0024     		movs	r4, #0
 130 0014 1470     		strb	r4, [r2]
ARM GAS  C:\Users\30514\AppData\Local\Temp\ccvtJF2o.s 			page 4


  48:Module/task/task.c ****         
  49:Module/task/task.c ****         // 获取当前位置
  50:Module/task/task.c ****         point2D current_pos = Get_Current_Position();
 131              		.loc 1 50 9 is_stmt 1 view .LVU16
 132              		.loc 1 50 31 is_stmt 0 view .LVU17
 133 0016 FFF7FEFF 		bl	Get_Current_Position
 134              	.LVL2:
 135 001a 8DED010A 		vstr.32	s0, [sp, #4]
 136 001e CDED020A 		vstr.32	s1, [sp, #8]
  51:Module/task/task.c ****         
  52:Module/task/task.c ****         // 获取关节角度
  53:Module/task/task.c ****         JointAngles angles = {0};
 137              		.loc 1 53 9 is_stmt 1 view .LVU18
 138              		.loc 1 53 21 is_stmt 0 view .LVU19
 139 0022 0394     		str	r4, [sp, #12]
 140 0024 0494     		str	r4, [sp, #16]
 141 0026 0594     		str	r4, [sp, #20]
  54:Module/task/task.c ****         angles.theta1 = motor[Motor1].para.pos; // 假设存储的是弧度
 142              		.loc 1 54 9 is_stmt 1 view .LVU20
 143              		.loc 1 54 43 is_stmt 0 view .LVU21
 144 0028 044B     		ldr	r3, .L13+4
 145 002a 1A6A     		ldr	r2, [r3, #32]	@ float
 146              		.loc 1 54 23 view .LVU22
 147 002c 0392     		str	r2, [sp, #12]	@ float
  55:Module/task/task.c ****         angles.theta2 = motor[Motor2].para.pos;
 148              		.loc 1 55 9 is_stmt 1 view .LVU23
 149              		.loc 1 55 43 is_stmt 0 view .LVU24
 150 002e D3F88C30 		ldr	r3, [r3, #140]	@ float
 151              		.loc 1 55 23 view .LVU25
 152 0032 0493     		str	r3, [sp, #16]	@ float
 153              	.LBE2:
  56:Module/task/task.c ****         
  57:Module/task/task.c ****         // 实际系统中通过串口输出
  58:Module/task/task.c ****         /*
  59:Module/task/task.c ****         printf("Arm State: %d\n", Get_Arm_State());
  60:Module/task/task.c ****         printf("Position: X=%.3f, Y=%.3f\n", current_pos.x, current_pos.y);
  61:Module/task/task.c ****         printf("Angles: Theta1=%.1f°, Theta2=%.1f°\n", 
  62:Module/task/task.c ****                angles.theta1 * 180/M_PI, angles.theta2 * 180/M_PI);
  63:Module/task/task.c ****         */
  64:Module/task/task.c ****     }
  65:Module/task/task.c **** }
 154              		.loc 1 65 1 view .LVU26
 155 0034 06B0     		add	sp, sp, #24
 156              	.LCFI4:
 157              		.cfi_def_cfa_offset 8
 158              		@ sp needed
 159 0036 10BD     		pop	{r4, pc}
 160              	.L14:
 161              		.align	2
 162              	.L13:
 163 0038 00000000 		.word	count.0
 164 003c 00000000 		.word	motor
 165              		.cfi_endproc
 166              	.LFE139:
 168              		.section	.rodata.task_init.str1.4,"aMS",%progbits,1
 169              		.align	2
 170              	.LC0:
ARM GAS  C:\Users\30514\AppData\Local\Temp\ccvtJF2o.s 			page 5


 171 0000 316D7320 		.ascii	"1ms Fast Loop\000"
 171      46617374 
 171      204C6F6F 
 171      7000
 172 000e 0000     		.align	2
 173              	.LC1:
 174 0010 356D7320 		.ascii	"5ms Control Loop\000"
 174      436F6E74 
 174      726F6C20 
 174      4C6F6F70 
 174      00
 175 0021 000000   		.align	2
 176              	.LC2:
 177 0024 31306D73 		.ascii	"10ms Arm Update\000"
 177      2041726D 
 177      20557064 
 177      61746500 
 178              		.align	2
 179              	.LC3:
 180 0034 3130306D 		.ascii	"100ms Debug Output\000"
 180      73204465 
 180      62756720 
 180      4F757470 
 180      757400
 181              		.section	.text.task_init,"ax",%progbits
 182              		.align	1
 183              		.global	task_init
 184              		.syntax unified
 185              		.thumb
 186              		.thumb_func
 188              	task_init:
 189              	.LFB134:
   9:Module/task/task.c **** 	//初始化调度器
 190              		.loc 1 9 1 is_stmt 1 view -0
 191              		.cfi_startproc
 192              		@ args = 0, pretend = 0, frame = 0
 193              		@ frame_needed = 0, uses_anonymous_args = 0
 194 0000 08B5     		push	{r3, lr}
 195              	.LCFI5:
 196              		.cfi_def_cfa_offset 8
 197              		.cfi_offset 3, -8
 198              		.cfi_offset 14, -4
  11:Module/task/task.c **** 
 199              		.loc 1 11 2 view .LVU28
 200 0002 FFF7FEFF 		bl	scheduler_init
 201              	.LVL3:
  14:Module/task/task.c ****     create_task(task_5ms, 5, "5ms Control Loop");
 202              		.loc 1 14 5 view .LVU29
 203 0006 0A4A     		ldr	r2, .L17
 204 0008 0121     		movs	r1, #1
 205 000a 0A48     		ldr	r0, .L17+4
 206 000c FFF7FEFF 		bl	create_task
 207              	.LVL4:
  15:Module/task/task.c ****     create_task(task_10ms, 10, "10ms Arm Update");
 208              		.loc 1 15 5 view .LVU30
 209 0010 094A     		ldr	r2, .L17+8
 210 0012 0521     		movs	r1, #5
ARM GAS  C:\Users\30514\AppData\Local\Temp\ccvtJF2o.s 			page 6


 211 0014 0948     		ldr	r0, .L17+12
 212 0016 FFF7FEFF 		bl	create_task
 213              	.LVL5:
  16:Module/task/task.c ****     create_task(task_100ms, 100, "100ms Debug Output");
 214              		.loc 1 16 5 view .LVU31
 215 001a 094A     		ldr	r2, .L17+16
 216 001c 0A21     		movs	r1, #10
 217 001e 0948     		ldr	r0, .L17+20
 218 0020 FFF7FEFF 		bl	create_task
 219              	.LVL6:
  17:Module/task/task.c **** }
 220              		.loc 1 17 5 view .LVU32
 221 0024 084A     		ldr	r2, .L17+24
 222 0026 6421     		movs	r1, #100
 223 0028 0848     		ldr	r0, .L17+28
 224 002a FFF7FEFF 		bl	create_task
 225              	.LVL7:
  18:Module/task/task.c **** 
 226              		.loc 1 18 1 is_stmt 0 view .LVU33
 227 002e 08BD     		pop	{r3, pc}
 228              	.L18:
 229              		.align	2
 230              	.L17:
 231 0030 00000000 		.word	.LC0
 232 0034 00000000 		.word	task_1ms
 233 0038 10000000 		.word	.LC1
 234 003c 00000000 		.word	task_5ms
 235 0040 24000000 		.word	.LC2
 236 0044 00000000 		.word	task_10ms
 237 0048 34000000 		.word	.LC3
 238 004c 00000000 		.word	task_100ms
 239              		.cfi_endproc
 240              	.LFE134:
 242              		.section	.text.task_2ms,"ax",%progbits
 243              		.align	1
 244              		.global	task_2ms
 245              		.syntax unified
 246              		.thumb
 247              		.thumb_func
 249              	task_2ms:
 250              	.LFB136:
  26:Module/task/task.c **** 
 251              		.loc 1 26 1 is_stmt 1 view -0
 252              		.cfi_startproc
 253              		@ args = 0, pretend = 0, frame = 0
 254              		@ frame_needed = 0, uses_anonymous_args = 0
 255              		@ link register save eliminated.
  28:Module/task/task.c **** 
 256              		.loc 1 28 1 view .LVU35
 257 0000 7047     		bx	lr
 258              		.cfi_endproc
 259              	.LFE136:
 261              		.section	.text.task_500ms,"ax",%progbits
 262              		.align	1
 263              		.global	task_500ms
 264              		.syntax unified
 265              		.thumb
ARM GAS  C:\Users\30514\AppData\Local\Temp\ccvtJF2o.s 			page 7


 266              		.thumb_func
 268              	task_500ms:
 269              	.LFB140:
  66:Module/task/task.c **** 
  67:Module/task/task.c **** void task_500ms(void)
  68:Module/task/task.c **** {
 270              		.loc 1 68 1 view -0
 271              		.cfi_startproc
 272              		@ args = 0, pretend = 0, frame = 0
 273              		@ frame_needed = 0, uses_anonymous_args = 0
 274              		@ link register save eliminated.
  69:Module/task/task.c **** 
  70:Module/task/task.c **** }
 275              		.loc 1 70 1 view .LVU37
 276 0000 7047     		bx	lr
 277              		.cfi_endproc
 278              	.LFE140:
 280              		.section	.bss.count.0,"aw",%nobits
 283              	count.0:
 284 0000 00       		.space	1
 285              		.text
 286              	.Letext0:
 287              		.file 2 "D:/enviroment/msys2/mingw64/arm-none-eabi/include/machine/_default_types.h"
 288              		.file 3 "D:/enviroment/msys2/mingw64/arm-none-eabi/include/sys/_stdint.h"
 289              		.file 4 "Module/motor/dm_drv.h"
 290              		.file 5 "Module/kinematic/kinematic_solver.h"
 291              		.file 6 "Module/arm_control/arm_control.h"
 292              		.file 7 "Module/scheduler/scheduler.h"
 293              		.file 8 "Module/motor/dm_ctrl.h"
ARM GAS  C:\Users\30514\AppData\Local\Temp\ccvtJF2o.s 			page 8


DEFINED SYMBOLS
                            *ABS*:00000000 task.c
C:\Users\30514\AppData\Local\Temp\ccvtJF2o.s:21     .text.task_1ms:00000000 $t
C:\Users\30514\AppData\Local\Temp\ccvtJF2o.s:27     .text.task_1ms:00000000 task_1ms
C:\Users\30514\AppData\Local\Temp\ccvtJF2o.s:40     .text.task_5ms:00000000 $t
C:\Users\30514\AppData\Local\Temp\ccvtJF2o.s:46     .text.task_5ms:00000000 task_5ms
C:\Users\30514\AppData\Local\Temp\ccvtJF2o.s:67     .text.task_10ms:00000000 $t
C:\Users\30514\AppData\Local\Temp\ccvtJF2o.s:73     .text.task_10ms:00000000 task_10ms
C:\Users\30514\AppData\Local\Temp\ccvtJF2o.s:93     .text.task_100ms:00000000 $t
C:\Users\30514\AppData\Local\Temp\ccvtJF2o.s:99     .text.task_100ms:00000000 task_100ms
C:\Users\30514\AppData\Local\Temp\ccvtJF2o.s:163    .text.task_100ms:00000038 $d
C:\Users\30514\AppData\Local\Temp\ccvtJF2o.s:283    .bss.count.0:00000000 count.0
C:\Users\30514\AppData\Local\Temp\ccvtJF2o.s:169    .rodata.task_init.str1.4:00000000 $d
C:\Users\30514\AppData\Local\Temp\ccvtJF2o.s:182    .text.task_init:00000000 $t
C:\Users\30514\AppData\Local\Temp\ccvtJF2o.s:188    .text.task_init:00000000 task_init
C:\Users\30514\AppData\Local\Temp\ccvtJF2o.s:231    .text.task_init:00000030 $d
C:\Users\30514\AppData\Local\Temp\ccvtJF2o.s:243    .text.task_2ms:00000000 $t
C:\Users\30514\AppData\Local\Temp\ccvtJF2o.s:249    .text.task_2ms:00000000 task_2ms
C:\Users\30514\AppData\Local\Temp\ccvtJF2o.s:262    .text.task_500ms:00000000 $t
C:\Users\30514\AppData\Local\Temp\ccvtJF2o.s:268    .text.task_500ms:00000000 task_500ms
C:\Users\30514\AppData\Local\Temp\ccvtJF2o.s:284    .bss.count.0:00000000 $d

UNDEFINED SYMBOLS
ctrl_send
ArmControl_Update
Get_Current_Position
motor
scheduler_init
create_task
