ARM GAS  C:\Users\30514\AppData\Local\Temp\cc6P8Qo3.s 			page 1


   1              		.cpu cortex-m4
   2              		.arch armv7e-m
   3              		.fpu fpv4-sp-d16
   4              		.eabi_attribute 27, 1
   5              		.eabi_attribute 28, 1
   6              		.eabi_attribute 20, 1
   7              		.eabi_attribute 21, 1
   8              		.eabi_attribute 23, 3
   9              		.eabi_attribute 24, 1
  10              		.eabi_attribute 25, 1
  11              		.eabi_attribute 26, 1
  12              		.eabi_attribute 30, 6
  13              		.eabi_attribute 34, 1
  14              		.eabi_attribute 18, 4
  15              		.file	"task.c"
  16              		.text
  17              	.Ltext0:
  18              		.cfi_sections	.debug_frame
  19              		.file 1 "Module/task/task.c"
  20              		.section	.rodata
  21              		.align	2
  22              	.LC0:
  23 0000 6374726C 		.ascii	"ctrl send\000"
  23      2073656E 
  23      6400
  24 000a 0000     		.align	2
  25              	.LC1:
  26 000c 6374726C 		.ascii	"ctrl update\000"
  26      20757064 
  26      61746500 
  27              		.align	2
  28              	.LC2:
  29 0018 3130306D 		.ascii	"100ms Debug Output\000"
  29      73204465 
  29      62756720 
  29      4F757470 
  29      757400
  30              		.section	.text.task_init,"ax",%progbits
  31              		.align	1
  32              		.global	task_init
  33              		.syntax unified
  34              		.thumb
  35              		.thumb_func
  37              	task_init:
  38              	.LFB134:
   1:Module/task/task.c **** #include "task.h"
   2:Module/task/task.c **** #include "scheduler.h"
   3:Module/task/task.c **** #include "driver.h"
   4:Module/task/task.c **** #include "dm_ctrl.h"
   5:Module/task/task.c **** #include "dm_drv.h"
   6:Module/task/task.c **** #include "arm_control.h"
   7:Module/task/task.c **** 
   8:Module/task/task.c **** void task_init(void)
   9:Module/task/task.c **** {
  39              		.loc 1 9 1
  40              		.cfi_startproc
  41              		@ args = 0, pretend = 0, frame = 0
ARM GAS  C:\Users\30514\AppData\Local\Temp\cc6P8Qo3.s 			page 2


  42              		@ frame_needed = 1, uses_anonymous_args = 0
  43 0000 80B5     		push	{r7, lr}
  44              	.LCFI0:
  45              		.cfi_def_cfa_offset 8
  46              		.cfi_offset 7, -8
  47              		.cfi_offset 14, -4
  48 0002 00AF     		add	r7, sp, #0
  49              	.LCFI1:
  50              		.cfi_def_cfa_register 7
  10:Module/task/task.c **** 	//初始化调度器
  11:Module/task/task.c **** 	scheduler_init();
  51              		.loc 1 11 2
  52 0004 FFF7FEFF 		bl	scheduler_init
  12:Module/task/task.c **** 
  13:Module/task/task.c **** 	//创建各周期任务
  14:Module/task/task.c ****     create_task(task_10ms, 10, "ctrl send");
  53              		.loc 1 14 5
  54 0008 084A     		ldr	r2, .L2
  55 000a 0A21     		movs	r1, #10
  56 000c 0848     		ldr	r0, .L2+4
  57 000e FFF7FEFF 		bl	create_task
  15:Module/task/task.c ****     create_task(task_20ms, 20, "ctrl update");
  58              		.loc 1 15 5
  59 0012 084A     		ldr	r2, .L2+8
  60 0014 1421     		movs	r1, #20
  61 0016 0848     		ldr	r0, .L2+12
  62 0018 FFF7FEFF 		bl	create_task
  16:Module/task/task.c ****     create_task(task_100ms, 100, "100ms Debug Output");
  63              		.loc 1 16 5
  64 001c 074A     		ldr	r2, .L2+16
  65 001e 6421     		movs	r1, #100
  66 0020 0748     		ldr	r0, .L2+20
  67 0022 FFF7FEFF 		bl	create_task
  17:Module/task/task.c **** }
  68              		.loc 1 17 1
  69 0026 00BF     		nop
  70 0028 80BD     		pop	{r7, pc}
  71              	.L3:
  72 002a 00BF     		.align	2
  73              	.L2:
  74 002c 00000000 		.word	.LC0
  75 0030 00000000 		.word	task_10ms
  76 0034 0C000000 		.word	.LC1
  77 0038 00000000 		.word	task_20ms
  78 003c 18000000 		.word	.LC2
  79 0040 00000000 		.word	task_100ms
  80              		.cfi_endproc
  81              	.LFE134:
  83              		.section	.text.task_10ms,"ax",%progbits
  84              		.align	1
  85              		.global	task_10ms
  86              		.syntax unified
  87              		.thumb
  88              		.thumb_func
  90              	task_10ms:
  91              	.LFB135:
  18:Module/task/task.c **** 
ARM GAS  C:\Users\30514\AppData\Local\Temp\cc6P8Qo3.s 			page 3


  19:Module/task/task.c **** void task_10ms(void)
  20:Module/task/task.c **** {
  92              		.loc 1 20 1
  93              		.cfi_startproc
  94              		@ args = 0, pretend = 0, frame = 0
  95              		@ frame_needed = 1, uses_anonymous_args = 0
  96 0000 80B5     		push	{r7, lr}
  97              	.LCFI2:
  98              		.cfi_def_cfa_offset 8
  99              		.cfi_offset 7, -8
 100              		.cfi_offset 14, -4
 101 0002 00AF     		add	r7, sp, #0
 102              	.LCFI3:
 103              		.cfi_def_cfa_register 7
  21:Module/task/task.c ****     ctrl_send(ALL_MOTORS);
 104              		.loc 1 21 5
 105 0004 0320     		movs	r0, #3
 106 0006 FFF7FEFF 		bl	ctrl_send
  22:Module/task/task.c **** }
 107              		.loc 1 22 1
 108 000a 00BF     		nop
 109 000c 80BD     		pop	{r7, pc}
 110              		.cfi_endproc
 111              	.LFE135:
 113              		.section	.text.task_20ms,"ax",%progbits
 114              		.align	1
 115              		.global	task_20ms
 116              		.syntax unified
 117              		.thumb
 118              		.thumb_func
 120              	task_20ms:
 121              	.LFB136:
  23:Module/task/task.c **** 
  24:Module/task/task.c **** void task_20ms(void)
  25:Module/task/task.c **** {
 122              		.loc 1 25 1
 123              		.cfi_startproc
 124              		@ args = 0, pretend = 0, frame = 0
 125              		@ frame_needed = 1, uses_anonymous_args = 0
 126 0000 80B5     		push	{r7, lr}
 127              	.LCFI4:
 128              		.cfi_def_cfa_offset 8
 129              		.cfi_offset 7, -8
 130              		.cfi_offset 14, -4
 131 0002 00AF     		add	r7, sp, #0
 132              	.LCFI5:
 133              		.cfi_def_cfa_register 7
  26:Module/task/task.c **** 	ArmControl_Update();
 134              		.loc 1 26 2
 135 0004 FFF7FEFF 		bl	ArmControl_Update
  27:Module/task/task.c **** }
 136              		.loc 1 27 1
 137 0008 00BF     		nop
 138 000a 80BD     		pop	{r7, pc}
 139              		.cfi_endproc
 140              	.LFE136:
 142              		.section	.text.task_100ms,"ax",%progbits
ARM GAS  C:\Users\30514\AppData\Local\Temp\cc6P8Qo3.s 			page 4


 143              		.align	1
 144              		.global	task_100ms
 145              		.syntax unified
 146              		.thumb
 147              		.thumb_func
 149              	task_100ms:
 150              	.LFB137:
  28:Module/task/task.c **** 
  29:Module/task/task.c **** void task_100ms(void)
  30:Module/task/task.c **** {
 151              		.loc 1 30 1
 152              		.cfi_startproc
 153              		@ args = 0, pretend = 0, frame = 0
 154              		@ frame_needed = 1, uses_anonymous_args = 0
 155              		@ link register save eliminated.
 156 0000 80B4     		push	{r7}
 157              	.LCFI6:
 158              		.cfi_def_cfa_offset 4
 159              		.cfi_offset 7, -4
 160 0002 00AF     		add	r7, sp, #0
 161              	.LCFI7:
 162              		.cfi_def_cfa_register 7
  31:Module/task/task.c **** 
  32:Module/task/task.c **** }
 163              		.loc 1 32 1
 164 0004 00BF     		nop
 165 0006 BD46     		mov	sp, r7
 166              	.LCFI8:
 167              		.cfi_def_cfa_register 13
 168              		@ sp needed
 169 0008 5DF8047B 		ldr	r7, [sp], #4
 170              	.LCFI9:
 171              		.cfi_restore 7
 172              		.cfi_def_cfa_offset 0
 173 000c 7047     		bx	lr
 174              		.cfi_endproc
 175              	.LFE137:
 177              		.section	.text.task_500ms,"ax",%progbits
 178              		.align	1
 179              		.global	task_500ms
 180              		.syntax unified
 181              		.thumb
 182              		.thumb_func
 184              	task_500ms:
 185              	.LFB138:
  33:Module/task/task.c **** 
  34:Module/task/task.c **** void task_500ms(void)
  35:Module/task/task.c **** {
 186              		.loc 1 35 1
 187              		.cfi_startproc
 188              		@ args = 0, pretend = 0, frame = 8
 189              		@ frame_needed = 1, uses_anonymous_args = 0
 190              		@ link register save eliminated.
 191 0000 80B4     		push	{r7}
 192              	.LCFI10:
 193              		.cfi_def_cfa_offset 4
 194              		.cfi_offset 7, -4
ARM GAS  C:\Users\30514\AppData\Local\Temp\cc6P8Qo3.s 			page 5


 195 0002 83B0     		sub	sp, sp, #12
 196              	.LCFI11:
 197              		.cfi_def_cfa_offset 16
 198 0004 00AF     		add	r7, sp, #0
 199              	.LCFI12:
 200              		.cfi_def_cfa_register 7
  36:Module/task/task.c ****       float real_pos1 = motor[Motor1].para.pos;
 201              		.loc 1 36 13
 202 0006 064B     		ldr	r3, .L8
 203 0008 1B6A     		ldr	r3, [r3, #32]	@ float
 204 000a 7B60     		str	r3, [r7, #4]	@ float
  37:Module/task/task.c ****       float real_pos2 = motor[Motor2].para.pos;
 205              		.loc 1 37 13
 206 000c 044B     		ldr	r3, .L8
 207 000e D3F88C30 		ldr	r3, [r3, #140]	@ float
 208 0012 3B60     		str	r3, [r7]	@ float
  38:Module/task/task.c ****   
  39:Module/task/task.c **** }
 209              		.loc 1 39 1
 210 0014 00BF     		nop
 211 0016 0C37     		adds	r7, r7, #12
 212              	.LCFI13:
 213              		.cfi_def_cfa_offset 4
 214 0018 BD46     		mov	sp, r7
 215              	.LCFI14:
 216              		.cfi_def_cfa_register 13
 217              		@ sp needed
 218 001a 5DF8047B 		ldr	r7, [sp], #4
 219              	.LCFI15:
 220              		.cfi_restore 7
 221              		.cfi_def_cfa_offset 0
 222 001e 7047     		bx	lr
 223              	.L9:
 224              		.align	2
 225              	.L8:
 226 0020 00000000 		.word	motor
 227              		.cfi_endproc
 228              	.LFE138:
 230              		.text
 231              	.Letext0:
 232              		.file 2 "D:/enviroment/msys2/mingw64/arm-none-eabi/include/machine/_default_types.h"
 233              		.file 3 "D:/enviroment/msys2/mingw64/arm-none-eabi/include/sys/_stdint.h"
 234              		.file 4 "Module/motor/dm_drv.h"
 235              		.file 5 "Module/motor/dm_ctrl.h"
 236              		.file 6 "Module/arm_control/arm_control.h"
 237              		.file 7 "Module/scheduler/scheduler.h"
ARM GAS  C:\Users\30514\AppData\Local\Temp\cc6P8Qo3.s 			page 6


DEFINED SYMBOLS
                            *ABS*:00000000 task.c
C:\Users\30514\AppData\Local\Temp\cc6P8Qo3.s:21     .rodata:00000000 $d
C:\Users\30514\AppData\Local\Temp\cc6P8Qo3.s:31     .text.task_init:00000000 $t
C:\Users\30514\AppData\Local\Temp\cc6P8Qo3.s:37     .text.task_init:00000000 task_init
C:\Users\30514\AppData\Local\Temp\cc6P8Qo3.s:74     .text.task_init:0000002c $d
C:\Users\30514\AppData\Local\Temp\cc6P8Qo3.s:90     .text.task_10ms:00000000 task_10ms
C:\Users\30514\AppData\Local\Temp\cc6P8Qo3.s:120    .text.task_20ms:00000000 task_20ms
C:\Users\30514\AppData\Local\Temp\cc6P8Qo3.s:149    .text.task_100ms:00000000 task_100ms
C:\Users\30514\AppData\Local\Temp\cc6P8Qo3.s:84     .text.task_10ms:00000000 $t
C:\Users\30514\AppData\Local\Temp\cc6P8Qo3.s:114    .text.task_20ms:00000000 $t
C:\Users\30514\AppData\Local\Temp\cc6P8Qo3.s:143    .text.task_100ms:00000000 $t
C:\Users\30514\AppData\Local\Temp\cc6P8Qo3.s:178    .text.task_500ms:00000000 $t
C:\Users\30514\AppData\Local\Temp\cc6P8Qo3.s:184    .text.task_500ms:00000000 task_500ms
C:\Users\30514\AppData\Local\Temp\cc6P8Qo3.s:226    .text.task_500ms:00000020 $d
                           .group:00000000 wm4.0.3e68c699c40fadf7e6c1e499de837233
                           .group:00000000 wm4.stm32f4xx_hal_conf.h.25.a9a6e27d8b41172b5af7d7631d763ee0
                           .group:00000000 wm4.stm32f4xx.h.38.63e3ea23bd63a94457417730025259b6
                           .group:00000000 wm4.stm32f446xx.h.34.dd43cebd7192f96bce7a5ff975201274
                           .group:00000000 wm4._newlib_version.h.4.0eb654b64686e2bd29646258853f6c22
                           .group:00000000 wm4.features.h.33.d554620bb17bd3b714c3fb5c268772bc
                           .group:00000000 wm4._default_types.h.15.247e5cd201eca3442cbf5404108c4935
                           .group:00000000 wm4._intsup.h.10.48bafbb683905c4daa4565a85aeeb264
                           .group:00000000 wm4._stdint.h.10.c24fa3af3bc1706662bb5593a907e841
                           .group:00000000 wm4.stdint.h.23.d53047a68f4a85177f80b422d52785ed
                           .group:00000000 wm4.cmsis_version.h.32.0ac195c83bb4537824e6ad1c47474b79
                           .group:00000000 wm4.core_cm4.h.66.e4ff136c4a17abc46741866f64f8e729
                           .group:00000000 wm4.cmsis_gcc.h.26.498d0ad17a45fc9ef20fdc01caf02259
                           .group:00000000 wm4.core_cm4.h.174.62be9b4588d49bed18171771001331df
                           .group:00000000 wm4.mpu_armv7.h.32.83326921a797fa9d6f70449916b4b839
                           .group:00000000 wm4.stm32f446xx.h.917.13927c85cbbf4787955bc4173c54fa12
                           .group:00000000 wm4.stm32f4xx.h.195.a4b8bf80f37cc96981498656ffe5f588
                           .group:00000000 wm4.stm32_hal_legacy.h.22.8b7d303dc46a0b7ac6d3edf19ce2608d
                           .group:00000000 wm4.stddef.h.39.0dc9006b34572d4d9cae4c8b422c4971
                           .group:00000000 wm4.stm32f4xx_hal_def.h.58.3cb484e92e5ccf2e55312a4714e27917
                           .group:00000000 wm4.stm32f4xx_hal_rcc_ex.h.20.9b6e314009d4800dd71c0ec1c264a1ea
                           .group:00000000 wm4.stm32f4xx_hal_rcc.h.106.0887cf5d985ae88e345b0aed0ceb4729
                           .group:00000000 wm4.stm32f4xx_hal_gpio.h.21.22da6a14b6049d6ac156577be74df1d7
                           .group:00000000 wm4.stm32f4xx_hal_gpio_ex.h.21.33ea7ea24fd170b1d3dce3d23330c9d3
                           .group:00000000 wm4.stm32f4xx_hal_gpio.h.254.d7e07832f748fe8bcb575db0b8373592
                           .group:00000000 wm4.stm32f4xx_hal_exti.h.21.4fc7f37c3cc97fb821b368ede79414b6
                           .group:00000000 wm4.stm32f4xx_hal_dma.h.21.8e4b1421c914345c23be719e5e528779
                           .group:00000000 wm4.stm32f4xx_hal_dma.h.720.ac2d7eef74792e4026acc4d2923c5da4
                           .group:00000000 wm4.stm32f4xx_hal_cortex.h.20.03673e4f79386680bf73ba399c19306b
                           .group:00000000 wm4.stm32f4xx_hal_can.h.21.4b16c8dedf31ba328482231f811a7e65
                           .group:00000000 wm4.stm32f4xx_hal_flash.h.20.2f1e0d1b7010b3a81a7980aaf712e7e5
                           .group:00000000 wm4.stm32f4xx_hal_flash_ex.h.20.77cb3e5c0f1e426426a4cbc884a1eed8
                           .group:00000000 wm4.stm32f4xx_hal_flash.h.361.23bc19b9eac79b0956d913651841ede8
                           .group:00000000 wm4.stm32f4xx_hal_pwr.h.20.1905a0783a9c83adefd7df0c4b501e40
                           .group:00000000 wm4.stm32f4xx_hal_pwr_ex.h.20.9786dbd699c850465fa7b77273740267
                           .group:00000000 wm4.stm32f4xx_hal_pwr.h.338.debc0a4a62ba54688e63ab53dd99c4ea
                           .group:00000000 wm4.stm32f4xx_hal_uart.h.21.ba8e24dd05c77faac3f3d48472e636ba
                           .group:00000000 wm4.stm32f4xx_hal.h.71.02372bc31d47d29d3f67fbfe1429649e
                           .group:00000000 wm4.stdbool.h.29.c08aa3eec75cf5b9b5003883f43253f0
                           .group:00000000 wm4.scheduler.h.9.c2e72bc7fdb275ad1ef5b8f9f98c2cf5
                           .group:00000000 wm4.can_driver.h.7.fc481f2a7d74537943d77eaf4fae2a89
                           .group:00000000 wm4.dm_drv.h.2.164616a3c14c5eba86a5356bad76ec61
ARM GAS  C:\Users\30514\AppData\Local\Temp\cc6P8Qo3.s 			page 7


                           .group:00000000 wm4.dm_ctrl.h.7.f5e8660fa386af2caaf9fd826f00c559
                           .group:00000000 wm4.remote_control.h.2.d5ede23e17e0664e5394033a072c4472
                           .group:00000000 wm4.remote_control.h.15.dad157441a7369e14747acc4dfbe8b08

UNDEFINED SYMBOLS
scheduler_init
create_task
ctrl_send
ArmControl_Update
motor
