ARM GAS  C:\Users\30514\AppData\Local\Temp\ccpMGNKH.s 			page 1


   1              		.cpu cortex-m4
   2              		.arch armv7e-m
   3              		.fpu fpv4-sp-d16
   4              		.eabi_attribute 27, 1
   5              		.eabi_attribute 28, 1
   6              		.eabi_attribute 20, 1
   7              		.eabi_attribute 21, 1
   8              		.eabi_attribute 23, 3
   9              		.eabi_attribute 24, 1
  10              		.eabi_attribute 25, 1
  11              		.eabi_attribute 26, 1
  12              		.eabi_attribute 30, 6
  13              		.eabi_attribute 34, 1
  14              		.eabi_attribute 18, 4
  15              		.file	"task.c"
  16              		.text
  17              	.Ltext0:
  18              		.cfi_sections	.debug_frame
  19              		.file 1 "Module/task/task.c"
  20              		.section	.rodata
  21              		.align	2
  22              	.LC0:
  23 0000 316D7320 		.ascii	"1ms Fast Loop\000"
  23      46617374 
  23      204C6F6F 
  23      7000
  24 000e 0000     		.align	2
  25              	.LC1:
  26 0010 356D7320 		.ascii	"5ms Control Loop\000"
  26      436F6E74 
  26      726F6C20 
  26      4C6F6F70 
  26      00
  27 0021 000000   		.align	2
  28              	.LC2:
  29 0024 31306D73 		.ascii	"10ms Arm Update\000"
  29      2041726D 
  29      20557064 
  29      61746500 
  30              		.align	2
  31              	.LC3:
  32 0034 3130306D 		.ascii	"100ms Debug Output\000"
  32      73204465 
  32      62756720 
  32      4F757470 
  32      757400
  33              		.section	.text.task_init,"ax",%progbits
  34              		.align	1
  35              		.global	task_init
  36              		.syntax unified
  37              		.thumb
  38              		.thumb_func
  40              	task_init:
  41              	.LFB134:
   1:Module/task/task.c **** #include "task.h"
   2:Module/task/task.c **** #include "scheduler.h"
   3:Module/task/task.c **** #include "driver.h"
ARM GAS  C:\Users\30514\AppData\Local\Temp\ccpMGNKH.s 			page 2


   4:Module/task/task.c **** #include "dm_ctrl.h"
   5:Module/task/task.c **** #include "dm_drv.h"
   6:Module/task/task.c **** #include "arm_control.h"
   7:Module/task/task.c **** 
   8:Module/task/task.c **** void task_init(void)
   9:Module/task/task.c **** {
  42              		.loc 1 9 1
  43              		.cfi_startproc
  44              		@ args = 0, pretend = 0, frame = 0
  45              		@ frame_needed = 1, uses_anonymous_args = 0
  46 0000 80B5     		push	{r7, lr}
  47              	.LCFI0:
  48              		.cfi_def_cfa_offset 8
  49              		.cfi_offset 7, -8
  50              		.cfi_offset 14, -4
  51 0002 00AF     		add	r7, sp, #0
  52              	.LCFI1:
  53              		.cfi_def_cfa_register 7
  10:Module/task/task.c **** 	//初始化调度器
  11:Module/task/task.c **** 	scheduler_init();
  54              		.loc 1 11 2
  55 0004 FFF7FEFF 		bl	scheduler_init
  12:Module/task/task.c **** 
  13:Module/task/task.c **** 	//创建各周期任务
  14:Module/task/task.c ****     create_task(task_1ms, 1, "1ms Fast Loop");
  56              		.loc 1 14 5
  57 0008 0A4A     		ldr	r2, .L2
  58 000a 0121     		movs	r1, #1
  59 000c 0A48     		ldr	r0, .L2+4
  60 000e FFF7FEFF 		bl	create_task
  15:Module/task/task.c ****     create_task(task_5ms, 5, "5ms Control Loop");
  61              		.loc 1 15 5
  62 0012 0A4A     		ldr	r2, .L2+8
  63 0014 0521     		movs	r1, #5
  64 0016 0A48     		ldr	r0, .L2+12
  65 0018 FFF7FEFF 		bl	create_task
  16:Module/task/task.c ****     create_task(task_10ms, 10, "10ms Arm Update");
  66              		.loc 1 16 5
  67 001c 094A     		ldr	r2, .L2+16
  68 001e 0A21     		movs	r1, #10
  69 0020 0948     		ldr	r0, .L2+20
  70 0022 FFF7FEFF 		bl	create_task
  17:Module/task/task.c ****     create_task(task_100ms, 100, "100ms Debug Output");
  71              		.loc 1 17 5
  72 0026 094A     		ldr	r2, .L2+24
  73 0028 6421     		movs	r1, #100
  74 002a 0948     		ldr	r0, .L2+28
  75 002c FFF7FEFF 		bl	create_task
  18:Module/task/task.c **** }
  76              		.loc 1 18 1
  77 0030 00BF     		nop
  78 0032 80BD     		pop	{r7, pc}
  79              	.L3:
  80              		.align	2
  81              	.L2:
  82 0034 00000000 		.word	.LC0
  83 0038 00000000 		.word	task_1ms
ARM GAS  C:\Users\30514\AppData\Local\Temp\ccpMGNKH.s 			page 3


  84 003c 10000000 		.word	.LC1
  85 0040 00000000 		.word	task_5ms
  86 0044 24000000 		.word	.LC2
  87 0048 00000000 		.word	task_10ms
  88 004c 34000000 		.word	.LC3
  89 0050 00000000 		.word	task_100ms
  90              		.cfi_endproc
  91              	.LFE134:
  93              		.section	.text.task_1ms,"ax",%progbits
  94              		.align	1
  95              		.global	task_1ms
  96              		.syntax unified
  97              		.thumb
  98              		.thumb_func
 100              	task_1ms:
 101              	.LFB135:
  19:Module/task/task.c **** 
  20:Module/task/task.c **** void task_1ms(void)
  21:Module/task/task.c **** {
 102              		.loc 1 21 1
 103              		.cfi_startproc
 104              		@ args = 0, pretend = 0, frame = 0
 105              		@ frame_needed = 1, uses_anonymous_args = 0
 106              		@ link register save eliminated.
 107 0000 80B4     		push	{r7}
 108              	.LCFI2:
 109              		.cfi_def_cfa_offset 4
 110              		.cfi_offset 7, -4
 111 0002 00AF     		add	r7, sp, #0
 112              	.LCFI3:
 113              		.cfi_def_cfa_register 7
  22:Module/task/task.c **** 
  23:Module/task/task.c **** }
 114              		.loc 1 23 1
 115 0004 00BF     		nop
 116 0006 BD46     		mov	sp, r7
 117              	.LCFI4:
 118              		.cfi_def_cfa_register 13
 119              		@ sp needed
 120 0008 5DF8047B 		ldr	r7, [sp], #4
 121              	.LCFI5:
 122              		.cfi_restore 7
 123              		.cfi_def_cfa_offset 0
 124 000c 7047     		bx	lr
 125              		.cfi_endproc
 126              	.LFE135:
 128              		.section	.text.task_2ms,"ax",%progbits
 129              		.align	1
 130              		.global	task_2ms
 131              		.syntax unified
 132              		.thumb
 133              		.thumb_func
 135              	task_2ms:
 136              	.LFB136:
  24:Module/task/task.c **** 
  25:Module/task/task.c **** void task_2ms(void)
  26:Module/task/task.c **** {
ARM GAS  C:\Users\30514\AppData\Local\Temp\ccpMGNKH.s 			page 4


 137              		.loc 1 26 1
 138              		.cfi_startproc
 139              		@ args = 0, pretend = 0, frame = 0
 140              		@ frame_needed = 1, uses_anonymous_args = 0
 141              		@ link register save eliminated.
 142 0000 80B4     		push	{r7}
 143              	.LCFI6:
 144              		.cfi_def_cfa_offset 4
 145              		.cfi_offset 7, -4
 146 0002 00AF     		add	r7, sp, #0
 147              	.LCFI7:
 148              		.cfi_def_cfa_register 7
  27:Module/task/task.c **** 
  28:Module/task/task.c **** }
 149              		.loc 1 28 1
 150 0004 00BF     		nop
 151 0006 BD46     		mov	sp, r7
 152              	.LCFI8:
 153              		.cfi_def_cfa_register 13
 154              		@ sp needed
 155 0008 5DF8047B 		ldr	r7, [sp], #4
 156              	.LCFI9:
 157              		.cfi_restore 7
 158              		.cfi_def_cfa_offset 0
 159 000c 7047     		bx	lr
 160              		.cfi_endproc
 161              	.LFE136:
 163              		.section	.text.task_5ms,"ax",%progbits
 164              		.align	1
 165              		.global	task_5ms
 166              		.syntax unified
 167              		.thumb
 168              		.thumb_func
 170              	task_5ms:
 171              	.LFB137:
  29:Module/task/task.c **** 
  30:Module/task/task.c **** void task_5ms(void)
  31:Module/task/task.c **** {
 172              		.loc 1 31 1
 173              		.cfi_startproc
 174              		@ args = 0, pretend = 0, frame = 0
 175              		@ frame_needed = 1, uses_anonymous_args = 0
 176 0000 80B5     		push	{r7, lr}
 177              	.LCFI10:
 178              		.cfi_def_cfa_offset 8
 179              		.cfi_offset 7, -8
 180              		.cfi_offset 14, -4
 181 0002 00AF     		add	r7, sp, #0
 182              	.LCFI11:
 183              		.cfi_def_cfa_register 7
  32:Module/task/task.c **** 	ctrl_send(ALL_MOTORS);
 184              		.loc 1 32 2
 185 0004 0320     		movs	r0, #3
 186 0006 FFF7FEFF 		bl	ctrl_send
  33:Module/task/task.c **** }
 187              		.loc 1 33 1
 188 000a 00BF     		nop
ARM GAS  C:\Users\30514\AppData\Local\Temp\ccpMGNKH.s 			page 5


 189 000c 80BD     		pop	{r7, pc}
 190              		.cfi_endproc
 191              	.LFE137:
 193              		.section	.text.task_10ms,"ax",%progbits
 194              		.align	1
 195              		.global	task_10ms
 196              		.syntax unified
 197              		.thumb
 198              		.thumb_func
 200              	task_10ms:
 201              	.LFB138:
  34:Module/task/task.c **** 
  35:Module/task/task.c **** void task_10ms(void)
  36:Module/task/task.c **** {
 202              		.loc 1 36 1
 203              		.cfi_startproc
 204              		@ args = 0, pretend = 0, frame = 0
 205              		@ frame_needed = 1, uses_anonymous_args = 0
 206 0000 80B5     		push	{r7, lr}
 207              	.LCFI12:
 208              		.cfi_def_cfa_offset 8
 209              		.cfi_offset 7, -8
 210              		.cfi_offset 14, -4
 211 0002 00AF     		add	r7, sp, #0
 212              	.LCFI13:
 213              		.cfi_def_cfa_register 7
  37:Module/task/task.c **** 	ArmControl_Update();
 214              		.loc 1 37 2
 215 0004 FFF7FEFF 		bl	ArmControl_Update
  38:Module/task/task.c **** }
 216              		.loc 1 38 1
 217 0008 00BF     		nop
 218 000a 80BD     		pop	{r7, pc}
 219              		.cfi_endproc
 220              	.LFE138:
 222              		.section	.text.task_100ms,"ax",%progbits
 223              		.align	1
 224              		.global	task_100ms
 225              		.syntax unified
 226              		.thumb
 227              		.thumb_func
 229              	task_100ms:
 230              	.LFB139:
  39:Module/task/task.c **** 
  40:Module/task/task.c **** void task_100ms(void)
  41:Module/task/task.c **** {
 231              		.loc 1 41 1
 232              		.cfi_startproc
 233              		@ args = 0, pretend = 0, frame = 0
 234              		@ frame_needed = 1, uses_anonymous_args = 0
 235              		@ link register save eliminated.
 236 0000 80B4     		push	{r7}
 237              	.LCFI14:
 238              		.cfi_def_cfa_offset 4
 239              		.cfi_offset 7, -4
 240 0002 00AF     		add	r7, sp, #0
 241              	.LCFI15:
ARM GAS  C:\Users\30514\AppData\Local\Temp\ccpMGNKH.s 			page 6


 242              		.cfi_def_cfa_register 7
  42:Module/task/task.c **** 	// 调试信息输出    
  43:Module/task/task.c ****         // 获取当前位置
  44:Module/task/task.c ****         
  45:Module/task/task.c ****         // 实际系统中通过串口输出
  46:Module/task/task.c ****         /*
  47:Module/task/task.c ****         printf("Arm State: %d\n", Get_Arm_State());
  48:Module/task/task.c ****         printf("Position: X=%.3f, Y=%.3f\n", current_pos.x, current_pos.y);
  49:Module/task/task.c ****         printf("Angles: Theta1=%.1f°, Theta2=%.1f°\n", 
  50:Module/task/task.c ****                angles.theta1 * 180/M_PI, angles.theta2 * 180/M_PI);
  51:Module/task/task.c ****         */
  52:Module/task/task.c **** }
 243              		.loc 1 52 1
 244 0004 00BF     		nop
 245 0006 BD46     		mov	sp, r7
 246              	.LCFI16:
 247              		.cfi_def_cfa_register 13
 248              		@ sp needed
 249 0008 5DF8047B 		ldr	r7, [sp], #4
 250              	.LCFI17:
 251              		.cfi_restore 7
 252              		.cfi_def_cfa_offset 0
 253 000c 7047     		bx	lr
 254              		.cfi_endproc
 255              	.LFE139:
 257              		.section	.text.task_500ms,"ax",%progbits
 258              		.align	1
 259              		.global	task_500ms
 260              		.syntax unified
 261              		.thumb
 262              		.thumb_func
 264              	task_500ms:
 265              	.LFB140:
  53:Module/task/task.c **** 
  54:Module/task/task.c **** void task_500ms(void)
  55:Module/task/task.c **** {
 266              		.loc 1 55 1
 267              		.cfi_startproc
 268              		@ args = 0, pretend = 0, frame = 0
 269              		@ frame_needed = 1, uses_anonymous_args = 0
 270              		@ link register save eliminated.
 271 0000 80B4     		push	{r7}
 272              	.LCFI18:
 273              		.cfi_def_cfa_offset 4
 274              		.cfi_offset 7, -4
 275 0002 00AF     		add	r7, sp, #0
 276              	.LCFI19:
 277              		.cfi_def_cfa_register 7
  56:Module/task/task.c **** 
  57:Module/task/task.c **** }
 278              		.loc 1 57 1
 279 0004 00BF     		nop
 280 0006 BD46     		mov	sp, r7
 281              	.LCFI20:
 282              		.cfi_def_cfa_register 13
 283              		@ sp needed
 284 0008 5DF8047B 		ldr	r7, [sp], #4
ARM GAS  C:\Users\30514\AppData\Local\Temp\ccpMGNKH.s 			page 7


 285              	.LCFI21:
 286              		.cfi_restore 7
 287              		.cfi_def_cfa_offset 0
 288 000c 7047     		bx	lr
 289              		.cfi_endproc
 290              	.LFE140:
 292              		.text
 293              	.Letext0:
 294              		.file 2 "D:/enviroment/msys2/mingw64/arm-none-eabi/include/machine/_default_types.h"
 295              		.file 3 "D:/enviroment/msys2/mingw64/arm-none-eabi/include/sys/_stdint.h"
 296              		.file 4 "Module/motor/dm_ctrl.h"
 297              		.file 5 "Module/arm_control/arm_control.h"
 298              		.file 6 "Module/scheduler/scheduler.h"
ARM GAS  C:\Users\30514\AppData\Local\Temp\ccpMGNKH.s 			page 8


DEFINED SYMBOLS
                            *ABS*:00000000 task.c
C:\Users\30514\AppData\Local\Temp\ccpMGNKH.s:21     .rodata:00000000 $d
C:\Users\30514\AppData\Local\Temp\ccpMGNKH.s:34     .text.task_init:00000000 $t
C:\Users\30514\AppData\Local\Temp\ccpMGNKH.s:40     .text.task_init:00000000 task_init
C:\Users\30514\AppData\Local\Temp\ccpMGNKH.s:82     .text.task_init:00000034 $d
C:\Users\30514\AppData\Local\Temp\ccpMGNKH.s:100    .text.task_1ms:00000000 task_1ms
C:\Users\30514\AppData\Local\Temp\ccpMGNKH.s:170    .text.task_5ms:00000000 task_5ms
C:\Users\30514\AppData\Local\Temp\ccpMGNKH.s:200    .text.task_10ms:00000000 task_10ms
C:\Users\30514\AppData\Local\Temp\ccpMGNKH.s:229    .text.task_100ms:00000000 task_100ms
C:\Users\30514\AppData\Local\Temp\ccpMGNKH.s:94     .text.task_1ms:00000000 $t
C:\Users\30514\AppData\Local\Temp\ccpMGNKH.s:129    .text.task_2ms:00000000 $t
C:\Users\30514\AppData\Local\Temp\ccpMGNKH.s:135    .text.task_2ms:00000000 task_2ms
C:\Users\30514\AppData\Local\Temp\ccpMGNKH.s:164    .text.task_5ms:00000000 $t
C:\Users\30514\AppData\Local\Temp\ccpMGNKH.s:194    .text.task_10ms:00000000 $t
C:\Users\30514\AppData\Local\Temp\ccpMGNKH.s:223    .text.task_100ms:00000000 $t
C:\Users\30514\AppData\Local\Temp\ccpMGNKH.s:258    .text.task_500ms:00000000 $t
C:\Users\30514\AppData\Local\Temp\ccpMGNKH.s:264    .text.task_500ms:00000000 task_500ms
                           .group:00000000 wm4.0.3e68c699c40fadf7e6c1e499de837233
                           .group:00000000 wm4.stm32f4xx_hal_conf.h.25.a9a6e27d8b41172b5af7d7631d763ee0
                           .group:00000000 wm4.stm32f4xx.h.38.63e3ea23bd63a94457417730025259b6
                           .group:00000000 wm4.stm32f446xx.h.34.dd43cebd7192f96bce7a5ff975201274
                           .group:00000000 wm4._newlib_version.h.4.0eb654b64686e2bd29646258853f6c22
                           .group:00000000 wm4.features.h.33.d554620bb17bd3b714c3fb5c268772bc
                           .group:00000000 wm4._default_types.h.15.247e5cd201eca3442cbf5404108c4935
                           .group:00000000 wm4._intsup.h.10.48bafbb683905c4daa4565a85aeeb264
                           .group:00000000 wm4._stdint.h.10.c24fa3af3bc1706662bb5593a907e841
                           .group:00000000 wm4.stdint.h.23.d53047a68f4a85177f80b422d52785ed
                           .group:00000000 wm4.cmsis_version.h.32.0ac195c83bb4537824e6ad1c47474b79
                           .group:00000000 wm4.core_cm4.h.66.e4ff136c4a17abc46741866f64f8e729
                           .group:00000000 wm4.cmsis_gcc.h.26.498d0ad17a45fc9ef20fdc01caf02259
                           .group:00000000 wm4.core_cm4.h.174.62be9b4588d49bed18171771001331df
                           .group:00000000 wm4.mpu_armv7.h.32.83326921a797fa9d6f70449916b4b839
                           .group:00000000 wm4.stm32f446xx.h.917.13927c85cbbf4787955bc4173c54fa12
                           .group:00000000 wm4.stm32f4xx.h.195.a4b8bf80f37cc96981498656ffe5f588
                           .group:00000000 wm4.stm32_hal_legacy.h.22.8b7d303dc46a0b7ac6d3edf19ce2608d
                           .group:00000000 wm4.stddef.h.39.0dc9006b34572d4d9cae4c8b422c4971
                           .group:00000000 wm4.stm32f4xx_hal_def.h.58.3cb484e92e5ccf2e55312a4714e27917
                           .group:00000000 wm4.stm32f4xx_hal_rcc_ex.h.20.9b6e314009d4800dd71c0ec1c264a1ea
                           .group:00000000 wm4.stm32f4xx_hal_rcc.h.106.0887cf5d985ae88e345b0aed0ceb4729
                           .group:00000000 wm4.stm32f4xx_hal_gpio.h.21.22da6a14b6049d6ac156577be74df1d7
                           .group:00000000 wm4.stm32f4xx_hal_gpio_ex.h.21.33ea7ea24fd170b1d3dce3d23330c9d3
                           .group:00000000 wm4.stm32f4xx_hal_gpio.h.254.d7e07832f748fe8bcb575db0b8373592
                           .group:00000000 wm4.stm32f4xx_hal_exti.h.21.4fc7f37c3cc97fb821b368ede79414b6
                           .group:00000000 wm4.stm32f4xx_hal_dma.h.21.8e4b1421c914345c23be719e5e528779
                           .group:00000000 wm4.stm32f4xx_hal_dma.h.720.ac2d7eef74792e4026acc4d2923c5da4
                           .group:00000000 wm4.stm32f4xx_hal_cortex.h.20.03673e4f79386680bf73ba399c19306b
                           .group:00000000 wm4.stm32f4xx_hal_can.h.21.4b16c8dedf31ba328482231f811a7e65
                           .group:00000000 wm4.stm32f4xx_hal_flash.h.20.2f1e0d1b7010b3a81a7980aaf712e7e5
                           .group:00000000 wm4.stm32f4xx_hal_flash_ex.h.20.77cb3e5c0f1e426426a4cbc884a1eed8
                           .group:00000000 wm4.stm32f4xx_hal_flash.h.361.23bc19b9eac79b0956d913651841ede8
                           .group:00000000 wm4.stm32f4xx_hal_pwr.h.20.1905a0783a9c83adefd7df0c4b501e40
                           .group:00000000 wm4.stm32f4xx_hal_pwr_ex.h.20.9786dbd699c850465fa7b77273740267
                           .group:00000000 wm4.stm32f4xx_hal_pwr.h.338.debc0a4a62ba54688e63ab53dd99c4ea
                           .group:00000000 wm4.stm32f4xx_hal_uart.h.21.ba8e24dd05c77faac3f3d48472e636ba
                           .group:00000000 wm4.stm32f4xx_hal.h.71.02372bc31d47d29d3f67fbfe1429649e
                           .group:00000000 wm4.stdbool.h.29.c08aa3eec75cf5b9b5003883f43253f0
ARM GAS  C:\Users\30514\AppData\Local\Temp\ccpMGNKH.s 			page 9


                           .group:00000000 wm4.scheduler.h.9.c2e72bc7fdb275ad1ef5b8f9f98c2cf5
                           .group:00000000 wm4.can_driver.h.7.fc481f2a7d74537943d77eaf4fae2a89
                           .group:00000000 wm4.dm_drv.h.2.164616a3c14c5eba86a5356bad76ec61
                           .group:00000000 wm4.dm_ctrl.h.7.f5e8660fa386af2caaf9fd826f00c559
                           .group:00000000 wm4.remote_control.h.2.d5ede23e17e0664e5394033a072c4472
                           .group:00000000 wm4.remote_control.h.15.dad157441a7369e14747acc4dfbe8b08

UNDEFINED SYMBOLS
scheduler_init
create_task
ctrl_send
ArmControl_Update
